; Listing generated by Microsoft (R) Optimizing Compiler Version 15.00.21022.08 

	TITLE	e:\Program\c#\SharpDevelop5\src\AddIns\Analysis\Profiler\Hook\constants.cpp
	.686P
	.XMM
	include listing.inc
	.model	flat

INCLUDELIB OLDNAMES

PUBLIC	??_C@_1FO@HMKJAAO@?$AAS?$AAy?$AAs?$AAt?$AAe?$AAm?$AA?4?$AAW?$AAi?$AAn?$AAd?$AAo?$AAw?$AAs?$AA?4?$AAU?$AAI?$AAE?$AAl?$AAe?$AAm?$AAe?$AAn?$AAt?$AA?4?$AAO?$AAn?$AAL?$AAe?$AAf?$AAt?$AAM@ ; `string'
PUBLIC	??_C@_1EO@EBPMOPMP@?$AAS?$AAy?$AAs?$AAt?$AAe?$AAm?$AA?4?$AAW?$AAi?$AAn?$AAd?$AAo?$AAw?$AAs?$AA?4?$AAF?$AAo?$AAr?$AAm?$AAs?$AA?4?$AAC?$AAo?$AAn?$AAt?$AAr?$AAo?$AAl?$AA?4?$AAO?$AAn?$AAK@ ; `string'
PUBLIC	??_C@_1FE@LEPEIFAM@?$AAS?$AAy?$AAs?$AAt?$AAe?$AAm?$AA?4?$AAW?$AAi?$AAn?$AAd?$AAo?$AAw?$AAs?$AA?4?$AAF?$AAo?$AAr?$AAm?$AAs?$AA?4?$AAC?$AAo?$AAn?$AAt?$AAr?$AAo?$AAl?$AA?4?$AAO?$AAn?$AAM@ ; `string'
PUBLIC	??_C@_1FG@OLBFDCFE@?$AAS?$AAy?$AAs?$AAt?$AAe?$AAm?$AA?4?$AAW?$AAi?$AAn?$AAd?$AAo?$AAw?$AAs?$AA?4?$AAF?$AAo?$AAr?$AAm?$AAs?$AA?4?$AAC?$AAo?$AAn?$AAt?$AAr?$AAo?$AAl?$AA?4?$AAO?$AAn?$AAD@ ; `string'
PUBLIC	??_C@_1EK@OAPLGMIE@?$AAS?$AAy?$AAs?$AAt?$AAe?$AAm?$AA?4?$AAW?$AAi?$AAn?$AAd?$AAo?$AAw?$AAs?$AA?4?$AAF?$AAo?$AAr?$AAm?$AAs?$AA?4?$AAC?$AAo?$AAn?$AAt?$AAr?$AAo?$AAl?$AA?4?$AAO?$AAn?$AAC@ ; `string'
PUBLIC	??_C@_1DC@OJPCDHNC@?$AAS?$AAy?$AAs?$AAt?$AAe?$AAm?$AA?4?$AAC?$AAo?$AAn?$AAs?$AAo?$AAl?$AAe?$AA?4?$AAW?$AAr?$AAi?$AAt?$AAe?$AAL?$AAi?$AAn?$AAe?$AA?$AA@ ; `string'
PUBLIC	??_C@_1CK@NINIKOAB@?$AAS?$AAy?$AAs?$AAt?$AAe?$AAm?$AA?4?$AAC?$AAo?$AAn?$AAs?$AAo?$AAl?$AAe?$AA?4?$AAW?$AAr?$AAi?$AAt?$AAe?$AA?$AA@ ; `string'
PUBLIC	??_C@_1CC@NLMMPFHH@?$AAP?$AAr?$AAe?$AAs?$AAe?$AAn?$AAt?$AAa?$AAt?$AAi?$AAo?$AAn?$AAC?$AAo?$AAr?$AAe?$AA?$AA@ ; `string'
PUBLIC	??_C@_1CK@GFPFIHLP@?$AAS?$AAy?$AAs?$AAt?$AAe?$AAm?$AA?4?$AAW?$AAi?$AAn?$AAd?$AAo?$AAw?$AAs?$AA?4?$AAF?$AAo?$AAr?$AAm?$AAs?$AA?$AA@ ; `string'
PUBLIC	??_C@_1BC@BLHMOICC@?$AAm?$AAs?$AAc?$AAo?$AAr?$AAl?$AAi?$AAb?$AA?$AA@ ; `string'
PUBLIC	?assemblyInjectionNameList@@3PAPA_WA		; assemblyInjectionNameList
PUBLIC	?consoleGroupList@@3PAPA_WA			; consoleGroupList
PUBLIC	?winFormsGroupList@@3PAPA_WA			; winFormsGroupList
PUBLIC	?wpfGroupList@@3PAPA_WA				; wpfGroupList
;	COMDAT ??_C@_1FO@HMKJAAO@?$AAS?$AAy?$AAs?$AAt?$AAe?$AAm?$AA?4?$AAW?$AAi?$AAn?$AAd?$AAo?$AAw?$AAs?$AA?4?$AAU?$AAI?$AAE?$AAl?$AAe?$AAm?$AAe?$AAn?$AAt?$AA?4?$AAO?$AAn?$AAL?$AAe?$AAf?$AAt?$AAM@
CONST	SEGMENT
??_C@_1FO@HMKJAAO@?$AAS?$AAy?$AAs?$AAt?$AAe?$AAm?$AA?4?$AAW?$AAi?$AAn?$AAd?$AAo?$AAw?$AAs?$AA?4?$AAU?$AAI?$AAE?$AAl?$AAe?$AAm?$AAe?$AAn?$AAt?$AA?4?$AAO?$AAn?$AAL?$AAe?$AAf?$AAt?$AAM@ DB 'S'
	DB	00H, 'y', 00H, 's', 00H, 't', 00H, 'e', 00H, 'm', 00H, '.', 00H
	DB	'W', 00H, 'i', 00H, 'n', 00H, 'd', 00H, 'o', 00H, 'w', 00H, 's'
	DB	00H, '.', 00H, 'U', 00H, 'I', 00H, 'E', 00H, 'l', 00H, 'e', 00H
	DB	'm', 00H, 'e', 00H, 'n', 00H, 't', 00H, '.', 00H, 'O', 00H, 'n'
	DB	00H, 'L', 00H, 'e', 00H, 'f', 00H, 't', 00H, 'M', 00H, 'o', 00H
	DB	'u', 00H, 's', 00H, 'e', 00H, 'B', 00H, 'u', 00H, 't', 00H, 't'
	DB	00H, 'o', 00H, 'n', 00H, 'D', 00H, 'o', 00H, 'w', 00H, 'n', 00H
	DB	00H, 00H					; `string'
CONST	ENDS
;	COMDAT ??_C@_1EO@EBPMOPMP@?$AAS?$AAy?$AAs?$AAt?$AAe?$AAm?$AA?4?$AAW?$AAi?$AAn?$AAd?$AAo?$AAw?$AAs?$AA?4?$AAF?$AAo?$AAr?$AAm?$AAs?$AA?4?$AAC?$AAo?$AAn?$AAt?$AAr?$AAo?$AAl?$AA?4?$AAO?$AAn?$AAK@
CONST	SEGMENT
??_C@_1EO@EBPMOPMP@?$AAS?$AAy?$AAs?$AAt?$AAe?$AAm?$AA?4?$AAW?$AAi?$AAn?$AAd?$AAo?$AAw?$AAs?$AA?4?$AAF?$AAo?$AAr?$AAm?$AAs?$AA?4?$AAC?$AAo?$AAn?$AAt?$AAr?$AAo?$AAl?$AA?4?$AAO?$AAn?$AAK@ DB 'S'
	DB	00H, 'y', 00H, 's', 00H, 't', 00H, 'e', 00H, 'm', 00H, '.', 00H
	DB	'W', 00H, 'i', 00H, 'n', 00H, 'd', 00H, 'o', 00H, 'w', 00H, 's'
	DB	00H, '.', 00H, 'F', 00H, 'o', 00H, 'r', 00H, 'm', 00H, 's', 00H
	DB	'.', 00H, 'C', 00H, 'o', 00H, 'n', 00H, 't', 00H, 'r', 00H, 'o'
	DB	00H, 'l', 00H, '.', 00H, 'O', 00H, 'n', 00H, 'K', 00H, 'e', 00H
	DB	'y', 00H, 'D', 00H, 'o', 00H, 'w', 00H, 'n', 00H, 00H, 00H ; `string'
CONST	ENDS
;	COMDAT ??_C@_1FE@LEPEIFAM@?$AAS?$AAy?$AAs?$AAt?$AAe?$AAm?$AA?4?$AAW?$AAi?$AAn?$AAd?$AAo?$AAw?$AAs?$AA?4?$AAF?$AAo?$AAr?$AAm?$AAs?$AA?4?$AAC?$AAo?$AAn?$AAt?$AAr?$AAo?$AAl?$AA?4?$AAO?$AAn?$AAM@
CONST	SEGMENT
??_C@_1FE@LEPEIFAM@?$AAS?$AAy?$AAs?$AAt?$AAe?$AAm?$AA?4?$AAW?$AAi?$AAn?$AAd?$AAo?$AAw?$AAs?$AA?4?$AAF?$AAo?$AAr?$AAm?$AAs?$AA?4?$AAC?$AAo?$AAn?$AAt?$AAr?$AAo?$AAl?$AA?4?$AAO?$AAn?$AAM@ DB 'S'
	DB	00H, 'y', 00H, 's', 00H, 't', 00H, 'e', 00H, 'm', 00H, '.', 00H
	DB	'W', 00H, 'i', 00H, 'n', 00H, 'd', 00H, 'o', 00H, 'w', 00H, 's'
	DB	00H, '.', 00H, 'F', 00H, 'o', 00H, 'r', 00H, 'm', 00H, 's', 00H
	DB	'.', 00H, 'C', 00H, 'o', 00H, 'n', 00H, 't', 00H, 'r', 00H, 'o'
	DB	00H, 'l', 00H, '.', 00H, 'O', 00H, 'n', 00H, 'M', 00H, 'o', 00H
	DB	'u', 00H, 's', 00H, 'e', 00H, 'W', 00H, 'h', 00H, 'e', 00H, 'e'
	DB	00H, 'l', 00H, 00H, 00H			; `string'
CONST	ENDS
;	COMDAT ??_C@_1FG@OLBFDCFE@?$AAS?$AAy?$AAs?$AAt?$AAe?$AAm?$AA?4?$AAW?$AAi?$AAn?$AAd?$AAo?$AAw?$AAs?$AA?4?$AAF?$AAo?$AAr?$AAm?$AAs?$AA?4?$AAC?$AAo?$AAn?$AAt?$AAr?$AAo?$AAl?$AA?4?$AAO?$AAn?$AAD@
CONST	SEGMENT
??_C@_1FG@OLBFDCFE@?$AAS?$AAy?$AAs?$AAt?$AAe?$AAm?$AA?4?$AAW?$AAi?$AAn?$AAd?$AAo?$AAw?$AAs?$AA?4?$AAF?$AAo?$AAr?$AAm?$AAs?$AA?4?$AAC?$AAo?$AAn?$AAt?$AAr?$AAo?$AAl?$AA?4?$AAO?$AAn?$AAD@ DB 'S'
	DB	00H, 'y', 00H, 's', 00H, 't', 00H, 'e', 00H, 'm', 00H, '.', 00H
	DB	'W', 00H, 'i', 00H, 'n', 00H, 'd', 00H, 'o', 00H, 'w', 00H, 's'
	DB	00H, '.', 00H, 'F', 00H, 'o', 00H, 'r', 00H, 'm', 00H, 's', 00H
	DB	'.', 00H, 'C', 00H, 'o', 00H, 'n', 00H, 't', 00H, 'r', 00H, 'o'
	DB	00H, 'l', 00H, '.', 00H, 'O', 00H, 'n', 00H, 'D', 00H, 'o', 00H
	DB	'u', 00H, 'b', 00H, 'l', 00H, 'e', 00H, 'C', 00H, 'l', 00H, 'i'
	DB	00H, 'c', 00H, 'k', 00H, 00H, 00H		; `string'
CONST	ENDS
;	COMDAT ??_C@_1EK@OAPLGMIE@?$AAS?$AAy?$AAs?$AAt?$AAe?$AAm?$AA?4?$AAW?$AAi?$AAn?$AAd?$AAo?$AAw?$AAs?$AA?4?$AAF?$AAo?$AAr?$AAm?$AAs?$AA?4?$AAC?$AAo?$AAn?$AAt?$AAr?$AAo?$AAl?$AA?4?$AAO?$AAn?$AAC@
CONST	SEGMENT
??_C@_1EK@OAPLGMIE@?$AAS?$AAy?$AAs?$AAt?$AAe?$AAm?$AA?4?$AAW?$AAi?$AAn?$AAd?$AAo?$AAw?$AAs?$AA?4?$AAF?$AAo?$AAr?$AAm?$AAs?$AA?4?$AAC?$AAo?$AAn?$AAt?$AAr?$AAo?$AAl?$AA?4?$AAO?$AAn?$AAC@ DB 'S'
	DB	00H, 'y', 00H, 's', 00H, 't', 00H, 'e', 00H, 'm', 00H, '.', 00H
	DB	'W', 00H, 'i', 00H, 'n', 00H, 'd', 00H, 'o', 00H, 'w', 00H, 's'
	DB	00H, '.', 00H, 'F', 00H, 'o', 00H, 'r', 00H, 'm', 00H, 's', 00H
	DB	'.', 00H, 'C', 00H, 'o', 00H, 'n', 00H, 't', 00H, 'r', 00H, 'o'
	DB	00H, 'l', 00H, '.', 00H, 'O', 00H, 'n', 00H, 'C', 00H, 'l', 00H
	DB	'i', 00H, 'c', 00H, 'k', 00H, 00H, 00H	; `string'
CONST	ENDS
;	COMDAT ??_C@_1DC@OJPCDHNC@?$AAS?$AAy?$AAs?$AAt?$AAe?$AAm?$AA?4?$AAC?$AAo?$AAn?$AAs?$AAo?$AAl?$AAe?$AA?4?$AAW?$AAr?$AAi?$AAt?$AAe?$AAL?$AAi?$AAn?$AAe?$AA?$AA@
CONST	SEGMENT
??_C@_1DC@OJPCDHNC@?$AAS?$AAy?$AAs?$AAt?$AAe?$AAm?$AA?4?$AAC?$AAo?$AAn?$AAs?$AAo?$AAl?$AAe?$AA?4?$AAW?$AAr?$AAi?$AAt?$AAe?$AAL?$AAi?$AAn?$AAe?$AA?$AA@ DB 'S'
	DB	00H, 'y', 00H, 's', 00H, 't', 00H, 'e', 00H, 'm', 00H, '.', 00H
	DB	'C', 00H, 'o', 00H, 'n', 00H, 's', 00H, 'o', 00H, 'l', 00H, 'e'
	DB	00H, '.', 00H, 'W', 00H, 'r', 00H, 'i', 00H, 't', 00H, 'e', 00H
	DB	'L', 00H, 'i', 00H, 'n', 00H, 'e', 00H, 00H, 00H ; `string'
CONST	ENDS
;	COMDAT ??_C@_1CK@NINIKOAB@?$AAS?$AAy?$AAs?$AAt?$AAe?$AAm?$AA?4?$AAC?$AAo?$AAn?$AAs?$AAo?$AAl?$AAe?$AA?4?$AAW?$AAr?$AAi?$AAt?$AAe?$AA?$AA@
CONST	SEGMENT
??_C@_1CK@NINIKOAB@?$AAS?$AAy?$AAs?$AAt?$AAe?$AAm?$AA?4?$AAC?$AAo?$AAn?$AAs?$AAo?$AAl?$AAe?$AA?4?$AAW?$AAr?$AAi?$AAt?$AAe?$AA?$AA@ DB 'S'
	DB	00H, 'y', 00H, 's', 00H, 't', 00H, 'e', 00H, 'm', 00H, '.', 00H
	DB	'C', 00H, 'o', 00H, 'n', 00H, 's', 00H, 'o', 00H, 'l', 00H, 'e'
	DB	00H, '.', 00H, 'W', 00H, 'r', 00H, 'i', 00H, 't', 00H, 'e', 00H
	DB	00H, 00H					; `string'
CONST	ENDS
;	COMDAT ??_C@_1CC@NLMMPFHH@?$AAP?$AAr?$AAe?$AAs?$AAe?$AAn?$AAt?$AAa?$AAt?$AAi?$AAo?$AAn?$AAC?$AAo?$AAr?$AAe?$AA?$AA@
CONST	SEGMENT
??_C@_1CC@NLMMPFHH@?$AAP?$AAr?$AAe?$AAs?$AAe?$AAn?$AAt?$AAa?$AAt?$AAi?$AAo?$AAn?$AAC?$AAo?$AAr?$AAe?$AA?$AA@ DB 'P'
	DB	00H, 'r', 00H, 'e', 00H, 's', 00H, 'e', 00H, 'n', 00H, 't', 00H
	DB	'a', 00H, 't', 00H, 'i', 00H, 'o', 00H, 'n', 00H, 'C', 00H, 'o'
	DB	00H, 'r', 00H, 'e', 00H, 00H, 00H		; `string'
CONST	ENDS
;	COMDAT ??_C@_1CK@GFPFIHLP@?$AAS?$AAy?$AAs?$AAt?$AAe?$AAm?$AA?4?$AAW?$AAi?$AAn?$AAd?$AAo?$AAw?$AAs?$AA?4?$AAF?$AAo?$AAr?$AAm?$AAs?$AA?$AA@
CONST	SEGMENT
??_C@_1CK@GFPFIHLP@?$AAS?$AAy?$AAs?$AAt?$AAe?$AAm?$AA?4?$AAW?$AAi?$AAn?$AAd?$AAo?$AAw?$AAs?$AA?4?$AAF?$AAo?$AAr?$AAm?$AAs?$AA?$AA@ DB 'S'
	DB	00H, 'y', 00H, 's', 00H, 't', 00H, 'e', 00H, 'm', 00H, '.', 00H
	DB	'W', 00H, 'i', 00H, 'n', 00H, 'd', 00H, 'o', 00H, 'w', 00H, 's'
	DB	00H, '.', 00H, 'F', 00H, 'o', 00H, 'r', 00H, 'm', 00H, 's', 00H
	DB	00H, 00H					; `string'
CONST	ENDS
;	COMDAT ??_C@_1BC@BLHMOICC@?$AAm?$AAs?$AAc?$AAo?$AAr?$AAl?$AAi?$AAb?$AA?$AA@
CONST	SEGMENT
??_C@_1BC@BLHMOICC@?$AAm?$AAs?$AAc?$AAo?$AAr?$AAl?$AAi?$AAb?$AA?$AA@ DB 'm'
	DB	00H, 's', 00H, 'c', 00H, 'o', 00H, 'r', 00H, 'l', 00H, 'i', 00H
	DB	'b', 00H, 00H, 00H				; `string'
_g_tkCorEncodeToken DD 02000000H
	DD	01000000H
	DD	01b000000H
	DD	072000000H
__bad_alloc_Message DD FLAT:??_C@_0P@GHFPNOJB@bad?5allocation?$AA@
?assemblyInjectionNameList@@3PAPA_WA DD FLAT:??_C@_1BC@BLHMOICC@?$AAm?$AAs?$AAc?$AAo?$AAr?$AAl?$AAi?$AAb?$AA?$AA@ ; assemblyInjectionNameList
	DD	FLAT:??_C@_1CK@GFPFIHLP@?$AAS?$AAy?$AAs?$AAt?$AAe?$AAm?$AA?4?$AAW?$AAi?$AAn?$AAd?$AAo?$AAw?$AAs?$AA?4?$AAF?$AAo?$AAr?$AAm?$AAs?$AA?$AA@
	DD	FLAT:??_C@_1CC@NLMMPFHH@?$AAP?$AAr?$AAe?$AAs?$AAe?$AAn?$AAt?$AAa?$AAt?$AAi?$AAo?$AAn?$AAC?$AAo?$AAr?$AAe?$AA?$AA@
?consoleGroupList@@3PAPA_WA DD FLAT:??_C@_1CK@NINIKOAB@?$AAS?$AAy?$AAs?$AAt?$AAe?$AAm?$AA?4?$AAC?$AAo?$AAn?$AAs?$AAo?$AAl?$AAe?$AA?4?$AAW?$AAr?$AAi?$AAt?$AAe?$AA?$AA@ ; consoleGroupList
	DD	FLAT:??_C@_1DC@OJPCDHNC@?$AAS?$AAy?$AAs?$AAt?$AAe?$AAm?$AA?4?$AAC?$AAo?$AAn?$AAs?$AAo?$AAl?$AAe?$AA?4?$AAW?$AAr?$AAi?$AAt?$AAe?$AAL?$AAi?$AAn?$AAe?$AA?$AA@
?winFormsGroupList@@3PAPA_WA DD FLAT:??_C@_1EK@OAPLGMIE@?$AAS?$AAy?$AAs?$AAt?$AAe?$AAm?$AA?4?$AAW?$AAi?$AAn?$AAd?$AAo?$AAw?$AAs?$AA?4?$AAF?$AAo?$AAr?$AAm?$AAs?$AA?4?$AAC?$AAo?$AAn?$AAt?$AAr?$AAo?$AAl?$AA?4?$AAO?$AAn?$AAC@ ; winFormsGroupList
	DD	FLAT:??_C@_1FG@OLBFDCFE@?$AAS?$AAy?$AAs?$AAt?$AAe?$AAm?$AA?4?$AAW?$AAi?$AAn?$AAd?$AAo?$AAw?$AAs?$AA?4?$AAF?$AAo?$AAr?$AAm?$AAs?$AA?4?$AAC?$AAo?$AAn?$AAt?$AAr?$AAo?$AAl?$AA?4?$AAO?$AAn?$AAD@
	DD	FLAT:??_C@_1FE@LEPEIFAM@?$AAS?$AAy?$AAs?$AAt?$AAe?$AAm?$AA?4?$AAW?$AAi?$AAn?$AAd?$AAo?$AAw?$AAs?$AA?4?$AAF?$AAo?$AAr?$AAm?$AAs?$AA?4?$AAC?$AAo?$AAn?$AAt?$AAr?$AAo?$AAl?$AA?4?$AAO?$AAn?$AAM@
	DD	FLAT:??_C@_1EO@EBPMOPMP@?$AAS?$AAy?$AAs?$AAt?$AAe?$AAm?$AA?4?$AAW?$AAi?$AAn?$AAd?$AAo?$AAw?$AAs?$AA?4?$AAF?$AAo?$AAr?$AAm?$AAs?$AA?4?$AAC?$AAo?$AAn?$AAt?$AAr?$AAo?$AAl?$AA?4?$AAO?$AAn?$AAK@
?wpfGroupList@@3PAPA_WA DD FLAT:??_C@_1FO@HMKJAAO@?$AAS?$AAy?$AAs?$AAt?$AAe?$AAm?$AA?4?$AAW?$AAi?$AAn?$AAd?$AAo?$AAw?$AAs?$AA?4?$AAU?$AAI?$AAE?$AAl?$AAe?$AAm?$AAe?$AAn?$AAt?$AA?4?$AAO?$AAn?$AAL?$AAe?$AAf?$AAt?$AAM@ ; wpfGroupList
END
