; Listing generated by Microsoft (R) Optimizing Compiler Version 15.00.21022.08 

	TITLE	e:\Program\c#\SharpDevelop5\src\AddIns\Analysis\Profiler\Hook\ProfilerMetaData.cpp
	.686P
	.XMM
	include listing.inc
	.model	flat

INCLUDELIB OLDNAMES

PUBLIC	??$?0_W@?$allocator@V_Aux_cont@std@@@std@@QAE@ABV?$allocator@_W@1@@Z ; std::allocator<std::_Aux_cont>::allocator<std::_Aux_cont><wchar_t>
PUBLIC	??0?$_Container_base_aux_alloc_real@V?$allocator@_W@std@@@std@@IAE@V?$allocator@_W@1@@Z ; std::_Container_base_aux_alloc_real<std::allocator<wchar_t> >::_Container_base_aux_alloc_real<std::allocator<wchar_t> >
PUBLIC	??$?0_W@?$allocator@PA_W@std@@QAE@ABV?$allocator@_W@1@@Z ; std::allocator<wchar_t *>::allocator<wchar_t *><wchar_t>
PUBLIC	??0?$_Deque_map@_WV?$allocator@_W@std@@@std@@IAE@V?$allocator@_W@1@@Z ; std::_Deque_map<wchar_t,std::allocator<wchar_t> >::_Deque_map<wchar_t,std::allocator<wchar_t> >
PUBLIC	??0?$_Deque_val@_WV?$allocator@_W@std@@@std@@IAE@V?$allocator@_W@1@@Z ; std::_Deque_val<wchar_t,std::allocator<wchar_t> >::_Deque_val<wchar_t,std::allocator<wchar_t> >
PUBLIC	??0?$deque@_WV?$allocator@_W@std@@@std@@QAE@XZ	; std::deque<wchar_t,std::allocator<wchar_t> >::deque<wchar_t,std::allocator<wchar_t> >
PUBLIC	??0?$stack@_WV?$deque@_WV?$allocator@_W@std@@@std@@@std@@QAE@XZ ; std::stack<wchar_t,std::deque<wchar_t,std::allocator<wchar_t> > >::stack<wchar_t,std::deque<wchar_t,std::allocator<wchar_t> > >
PUBLIC	??1?$_Container_base_aux_alloc_real@V?$allocator@_W@std@@@std@@IAE@XZ ; std::_Container_base_aux_alloc_real<std::allocator<wchar_t> >::~_Container_base_aux_alloc_real<std::allocator<wchar_t> >
PUBLIC	??1?$_Deque_map@_WV?$allocator@_W@std@@@std@@QAE@XZ ; std::_Deque_map<wchar_t,std::allocator<wchar_t> >::~_Deque_map<wchar_t,std::allocator<wchar_t> >
PUBLIC	??1?$_Deque_val@_WV?$allocator@_W@std@@@std@@QAE@XZ ; std::_Deque_val<wchar_t,std::allocator<wchar_t> >::~_Deque_val<wchar_t,std::allocator<wchar_t> >
PUBLIC	??$_Destroy@PA_W@std@@YAXPAPA_W@Z		; std::_Destroy<wchar_t *>
PUBLIC	?destroy@?$allocator@PA_W@std@@QAEXPAPA_W@Z	; std::allocator<wchar_t *>::destroy
PUBLIC	?_Tidy@?$deque@_WV?$allocator@_W@std@@@std@@IAEXXZ ; std::deque<wchar_t,std::allocator<wchar_t> >::_Tidy
PUBLIC	??1?$deque@_WV?$allocator@_W@std@@@std@@QAE@XZ	; std::deque<wchar_t,std::allocator<wchar_t> >::~deque<wchar_t,std::allocator<wchar_t> >
PUBLIC	??1?$stack@_WV?$deque@_WV?$allocator@_W@std@@@std@@@std@@QAE@XZ ; std::stack<wchar_t,std::deque<wchar_t,std::allocator<wchar_t> > >::~stack<wchar_t,std::deque<wchar_t,std::allocator<wchar_t> > >
PUBLIC	??0?$allocator@V?$basic_string@_WU?$char_traits@_W@std@@V?$allocator@_W@2@@std@@@std@@QAE@XZ ; std::allocator<std::basic_string<wchar_t,std::char_traits<wchar_t>,std::allocator<wchar_t> > >::allocator<std::basic_string<wchar_t,std::char_traits<wchar_t>,std::allocator<wchar_t> > >
PUBLIC	??$?0V?$basic_string@_WU?$char_traits@_W@std@@V?$allocator@_W@2@@std@@@?$allocator@V_Aux_cont@std@@@std@@QAE@ABV?$allocator@V?$basic_string@_WU?$char_traits@_W@std@@V?$allocator@_W@2@@std@@@1@@Z ; std::allocator<std::_Aux_cont>::allocator<std::_Aux_cont><std::basic_string<wchar_t,std::char_traits<wchar_t>,std::allocator<wchar_t> > >
PUBLIC	??0?$_Container_base_aux_alloc_real@V?$allocator@V?$basic_string@_WU?$char_traits@_W@std@@V?$allocator@_W@2@@std@@@std@@@std@@IAE@V?$allocator@V?$basic_string@_WU?$char_traits@_W@std@@V?$allocator@_W@2@@std@@@1@@Z ; std::_Container_base_aux_alloc_real<std::allocator<std::basic_string<wchar_t,std::char_traits<wchar_t>,std::allocator<wchar_t> > > >::_Container_base_aux_alloc_real<std::allocator<std::basic_string<wchar_t,std::char_traits<wchar_t>,std::allocator<wchar_t> > > >
PUBLIC	??0?$allocator@V?$basic_string@_WU?$char_traits@_W@std@@V?$allocator@_W@2@@std@@@std@@QAE@ABV01@@Z ; std::allocator<std::basic_string<wchar_t,std::char_traits<wchar_t>,std::allocator<wchar_t> > >::allocator<std::basic_string<wchar_t,std::char_traits<wchar_t>,std::allocator<wchar_t> > >
PUBLIC	??$?0V?$basic_string@_WU?$char_traits@_W@std@@V?$allocator@_W@2@@std@@@?$allocator@PAV?$basic_string@_WU?$char_traits@_W@std@@V?$allocator@_W@2@@std@@@std@@QAE@ABV?$allocator@V?$basic_string@_WU?$char_traits@_W@std@@V?$allocator@_W@2@@std@@@1@@Z ; std::allocator<std::basic_string<wchar_t,std::char_traits<wchar_t>,std::allocator<wchar_t> > *>::allocator<std::basic_string<wchar_t,std::char_traits<wchar_t>,std::allocator<wchar_t> > *><std::basic_string<wchar_t,std::char_traits<wchar_t>,std::allocator<wchar_t> > >
PUBLIC	??0?$_Deque_map@V?$basic_string@_WU?$char_traits@_W@std@@V?$allocator@_W@2@@std@@V?$allocator@V?$basic_string@_WU?$char_traits@_W@std@@V?$allocator@_W@2@@std@@@2@@std@@IAE@V?$allocator@V?$basic_string@_WU?$char_traits@_W@std@@V?$allocator@_W@2@@std@@@1@@Z ; std::_Deque_map<std::basic_string<wchar_t,std::char_traits<wchar_t>,std::allocator<wchar_t> >,std::allocator<std::basic_string<wchar_t,std::char_traits<wchar_t>,std::allocator<wchar_t> > > >::_Deque_map<std::basic_string<wchar_t,std::char_traits<wchar_t>,std::allocator<wchar_t> >,std::allocator<std::basic_string<wchar_t,std::char_traits<wchar_t>,std::allocator<wchar_t> > > >
PUBLIC	??0?$_Deque_val@V?$basic_string@_WU?$char_traits@_W@std@@V?$allocator@_W@2@@std@@V?$allocator@V?$basic_string@_WU?$char_traits@_W@std@@V?$allocator@_W@2@@std@@@2@@std@@IAE@V?$allocator@V?$basic_string@_WU?$char_traits@_W@std@@V?$allocator@_W@2@@std@@@1@@Z ; std::_Deque_val<std::basic_string<wchar_t,std::char_traits<wchar_t>,std::allocator<wchar_t> >,std::allocator<std::basic_string<wchar_t,std::char_traits<wchar_t>,std::allocator<wchar_t> > > >::_Deque_val<std::basic_string<wchar_t,std::char_traits<wchar_t>,std::allocator<wchar_t> >,std::allocator<std::basic_string<wchar_t,std::char_traits<wchar_t>,std::allocator<wchar_t> > > >
PUBLIC	??0?$deque@V?$basic_string@_WU?$char_traits@_W@std@@V?$allocator@_W@2@@std@@V?$allocator@V?$basic_string@_WU?$char_traits@_W@std@@V?$allocator@_W@2@@std@@@2@@std@@QAE@XZ ; std::deque<std::basic_string<wchar_t,std::char_traits<wchar_t>,std::allocator<wchar_t> >,std::allocator<std::basic_string<wchar_t,std::char_traits<wchar_t>,std::allocator<wchar_t> > > >::deque<std::basic_string<wchar_t,std::char_traits<wchar_t>,std::allocator<wchar_t> >,std::allocator<std::basic_string<wchar_t,std::char_traits<wchar_t>,std::allocator<wchar_t> > > >
PUBLIC	??0?$stack@V?$basic_string@_WU?$char_traits@_W@std@@V?$allocator@_W@2@@std@@V?$deque@V?$basic_string@_WU?$char_traits@_W@std@@V?$allocator@_W@2@@std@@V?$allocator@V?$basic_string@_WU?$char_traits@_W@std@@V?$allocator@_W@2@@std@@@2@@2@@std@@QAE@XZ ; std::stack<std::basic_string<wchar_t,std::char_traits<wchar_t>,std::allocator<wchar_t> >,std::deque<std::basic_string<wchar_t,std::char_traits<wchar_t>,std::allocator<wchar_t> >,std::allocator<std::basic_string<wchar_t,std::char_traits<wchar_t>,std::allocator<wchar_t> > > > >::stack<std::basic_string<wchar_t,std::char_traits<wchar_t>,std::allocator<wchar_t> >,std::deque<std::basic_string<wchar_t,std::char_traits<wchar_t>,std::allocator<wchar_t> >,std::allocator<std::basic_string<wchar_t,std::char_traits<wchar_t>,std::allocator<wchar_t> > > > >
PUBLIC	?empty@?$stack@V?$basic_string@_WU?$char_traits@_W@std@@V?$allocator@_W@2@@std@@V?$deque@V?$basic_string@_WU?$char_traits@_W@std@@V?$allocator@_W@2@@std@@V?$allocator@V?$basic_string@_WU?$char_traits@_W@std@@V?$allocator@_W@2@@std@@@2@@2@@std@@QBE_NXZ ; std::stack<std::basic_string<wchar_t,std::char_traits<wchar_t>,std::allocator<wchar_t> >,std::deque<std::basic_string<wchar_t,std::char_traits<wchar_t>,std::allocator<wchar_t> >,std::allocator<std::basic_string<wchar_t,std::char_traits<wchar_t>,std::allocator<wchar_t> > > > >::empty
PUBLIC	??0?$_Iterator_with_base@Urandom_access_iterator_tag@std@@V?$basic_string@_WU?$char_traits@_W@std@@V?$allocator@_W@2@@2@HPBV32@ABV32@V_Iterator_base_aux@2@@std@@QAE@XZ ; std::_Iterator_with_base<std::random_access_iterator_tag,std::basic_string<wchar_t,std::char_traits<wchar_t>,std::allocator<wchar_t> >,int,std::basic_string<wchar_t,std::char_traits<wchar_t>,std::allocator<wchar_t> > const *,std::basic_string<wchar_t,std::char_traits<wchar_t>,std::allocator<wchar_t> > const &,std::_Iterator_base_aux>::_Iterator_with_base<std::random_access_iterator_tag,std::basic_string<wchar_t,std::char_traits<wchar_t>,std::allocator<wchar_t> >,int,std::basic_string<wchar_t,std::char_traits<wchar_t>,std::allocator<wchar_t> > const *,std::basic_string<wchar_t,std::char_traits<wchar_t>,std::allocator<wchar_t> > const &,std::_Iterator_base_aux>
PUBLIC	??0?$_Ranit@V?$basic_string@_WU?$char_traits@_W@std@@V?$allocator@_W@2@@std@@HPBV12@ABV12@@std@@QAE@XZ ; std::_Ranit<std::basic_string<wchar_t,std::char_traits<wchar_t>,std::allocator<wchar_t> >,int,std::basic_string<wchar_t,std::char_traits<wchar_t>,std::allocator<wchar_t> > const *,std::basic_string<wchar_t,std::char_traits<wchar_t>,std::allocator<wchar_t> > const &>::_Ranit<std::basic_string<wchar_t,std::char_traits<wchar_t>,std::allocator<wchar_t> >,int,std::basic_string<wchar_t,std::char_traits<wchar_t>,std::allocator<wchar_t> > const *,std::basic_string<wchar_t,std::char_traits<wchar_t>,std::allocator<wchar_t> > const &>
PUBLIC	??0?$_Deque_const_iterator@V?$basic_string@_WU?$char_traits@_W@std@@V?$allocator@_W@2@@std@@V?$allocator@V?$basic_string@_WU?$char_traits@_W@std@@V?$allocator@_W@2@@std@@@2@$00@std@@QAE@IPBV_Container_base_aux@1@@Z ; std::_Deque_const_iterator<std::basic_string<wchar_t,std::char_traits<wchar_t>,std::allocator<wchar_t> >,std::allocator<std::basic_string<wchar_t,std::char_traits<wchar_t>,std::allocator<wchar_t> > >,1>::_Deque_const_iterator<std::basic_string<wchar_t,std::char_traits<wchar_t>,std::allocator<wchar_t> >,std::allocator<std::basic_string<wchar_t,std::char_traits<wchar_t>,std::allocator<wchar_t> > >,1>
PUBLIC	??0?$_Deque_iterator@V?$basic_string@_WU?$char_traits@_W@std@@V?$allocator@_W@2@@std@@V?$allocator@V?$basic_string@_WU?$char_traits@_W@std@@V?$allocator@_W@2@@std@@@2@$00@std@@QAE@IPBV_Container_base_aux@1@@Z ; std::_Deque_iterator<std::basic_string<wchar_t,std::char_traits<wchar_t>,std::allocator<wchar_t> >,std::allocator<std::basic_string<wchar_t,std::char_traits<wchar_t>,std::allocator<wchar_t> > >,1>::_Deque_iterator<std::basic_string<wchar_t,std::char_traits<wchar_t>,std::allocator<wchar_t> >,std::allocator<std::basic_string<wchar_t,std::char_traits<wchar_t>,std::allocator<wchar_t> > >,1>
PUBLIC	?end@?$deque@V?$basic_string@_WU?$char_traits@_W@std@@V?$allocator@_W@2@@std@@V?$allocator@V?$basic_string@_WU?$char_traits@_W@std@@V?$allocator@_W@2@@std@@@2@@std@@QAE?AV?$_Deque_iterator@V?$basic_string@_WU?$char_traits@_W@std@@V?$allocator@_W@2@@std@@V?$allocator@V?$basic_string@_WU?$char_traits@_W@std@@V?$allocator@_W@2@@std@@@2@$00@2@XZ ; std::deque<std::basic_string<wchar_t,std::char_traits<wchar_t>,std::allocator<wchar_t> >,std::allocator<std::basic_string<wchar_t,std::char_traits<wchar_t>,std::allocator<wchar_t> > > >::end
PUBLIC	??D?$_Deque_const_iterator@V?$basic_string@_WU?$char_traits@_W@std@@V?$allocator@_W@2@@std@@V?$allocator@V?$basic_string@_WU?$char_traits@_W@std@@V?$allocator@_W@2@@std@@@2@$00@std@@QBEABV?$basic_string@_WU?$char_traits@_W@std@@V?$allocator@_W@2@@1@XZ ; std::_Deque_const_iterator<std::basic_string<wchar_t,std::char_traits<wchar_t>,std::allocator<wchar_t> >,std::allocator<std::basic_string<wchar_t,std::char_traits<wchar_t>,std::allocator<wchar_t> > >,1>::operator*
PUBLIC	??D?$_Deque_iterator@V?$basic_string@_WU?$char_traits@_W@std@@V?$allocator@_W@2@@std@@V?$allocator@V?$basic_string@_WU?$char_traits@_W@std@@V?$allocator@_W@2@@std@@@2@$00@std@@QBEAAV?$basic_string@_WU?$char_traits@_W@std@@V?$allocator@_W@2@@1@XZ ; std::_Deque_iterator<std::basic_string<wchar_t,std::char_traits<wchar_t>,std::allocator<wchar_t> >,std::allocator<std::basic_string<wchar_t,std::char_traits<wchar_t>,std::allocator<wchar_t> > >,1>::operator*
PUBLIC	??Y?$_Deque_const_iterator@V?$basic_string@_WU?$char_traits@_W@std@@V?$allocator@_W@2@@std@@V?$allocator@V?$basic_string@_WU?$char_traits@_W@std@@V?$allocator@_W@2@@std@@@2@$00@std@@QAEAAV01@H@Z ; std::_Deque_const_iterator<std::basic_string<wchar_t,std::char_traits<wchar_t>,std::allocator<wchar_t> >,std::allocator<std::basic_string<wchar_t,std::char_traits<wchar_t>,std::allocator<wchar_t> > >,1>::operator+=
PUBLIC	??Y?$_Deque_iterator@V?$basic_string@_WU?$char_traits@_W@std@@V?$allocator@_W@2@@std@@V?$allocator@V?$basic_string@_WU?$char_traits@_W@std@@V?$allocator@_W@2@@std@@@2@$00@std@@QAEAAV01@H@Z ; std::_Deque_iterator<std::basic_string<wchar_t,std::char_traits<wchar_t>,std::allocator<wchar_t> >,std::allocator<std::basic_string<wchar_t,std::char_traits<wchar_t>,std::allocator<wchar_t> > >,1>::operator+=
PUBLIC	??Z?$_Deque_iterator@V?$basic_string@_WU?$char_traits@_W@std@@V?$allocator@_W@2@@std@@V?$allocator@V?$basic_string@_WU?$char_traits@_W@std@@V?$allocator@_W@2@@std@@@2@$00@std@@QAEAAV01@H@Z ; std::_Deque_iterator<std::basic_string<wchar_t,std::char_traits<wchar_t>,std::allocator<wchar_t> >,std::allocator<std::basic_string<wchar_t,std::char_traits<wchar_t>,std::allocator<wchar_t> > >,1>::operator-=
PUBLIC	??G?$_Deque_iterator@V?$basic_string@_WU?$char_traits@_W@std@@V?$allocator@_W@2@@std@@V?$allocator@V?$basic_string@_WU?$char_traits@_W@std@@V?$allocator@_W@2@@std@@@2@$00@std@@QBE?AV01@H@Z ; std::_Deque_iterator<std::basic_string<wchar_t,std::char_traits<wchar_t>,std::allocator<wchar_t> >,std::allocator<std::basic_string<wchar_t,std::char_traits<wchar_t>,std::allocator<wchar_t> > >,1>::operator-
PUBLIC	?back@?$deque@V?$basic_string@_WU?$char_traits@_W@std@@V?$allocator@_W@2@@std@@V?$allocator@V?$basic_string@_WU?$char_traits@_W@std@@V?$allocator@_W@2@@std@@@2@@std@@QAEAAV?$basic_string@_WU?$char_traits@_W@std@@V?$allocator@_W@2@@2@XZ ; std::deque<std::basic_string<wchar_t,std::char_traits<wchar_t>,std::allocator<wchar_t> >,std::allocator<std::basic_string<wchar_t,std::char_traits<wchar_t>,std::allocator<wchar_t> > > >::back
PUBLIC	?top@?$stack@V?$basic_string@_WU?$char_traits@_W@std@@V?$allocator@_W@2@@std@@V?$deque@V?$basic_string@_WU?$char_traits@_W@std@@V?$allocator@_W@2@@std@@V?$allocator@V?$basic_string@_WU?$char_traits@_W@std@@V?$allocator@_W@2@@std@@@2@@2@@std@@QAEAAV?$basic_string@_WU?$char_traits@_W@std@@V?$allocator@_W@2@@2@XZ ; std::stack<std::basic_string<wchar_t,std::char_traits<wchar_t>,std::allocator<wchar_t> >,std::deque<std::basic_string<wchar_t,std::char_traits<wchar_t>,std::allocator<wchar_t> >,std::allocator<std::basic_string<wchar_t,std::char_traits<wchar_t>,std::allocator<wchar_t> > > > >::top
PUBLIC	??$_Allocate@V?$basic_string@_WU?$char_traits@_W@std@@V?$allocator@_W@2@@std@@@std@@YAPAV?$basic_string@_WU?$char_traits@_W@std@@V?$allocator@_W@2@@0@IPAV10@@Z ; std::_Allocate<std::basic_string<wchar_t,std::char_traits<wchar_t>,std::allocator<wchar_t> > >
PUBLIC	?allocate@?$allocator@V?$basic_string@_WU?$char_traits@_W@std@@V?$allocator@_W@2@@std@@@std@@QAEPAV?$basic_string@_WU?$char_traits@_W@std@@V?$allocator@_W@2@@2@I@Z ; std::allocator<std::basic_string<wchar_t,std::char_traits<wchar_t>,std::allocator<wchar_t> > >::allocate
PUBLIC	??$_Construct@V?$basic_string@_WU?$char_traits@_W@std@@V?$allocator@_W@2@@std@@V12@@std@@YAXPAV?$basic_string@_WU?$char_traits@_W@std@@V?$allocator@_W@2@@0@ABV10@@Z ; std::_Construct<std::basic_string<wchar_t,std::char_traits<wchar_t>,std::allocator<wchar_t> >,std::basic_string<wchar_t,std::char_traits<wchar_t>,std::allocator<wchar_t> > >
PUBLIC	?construct@?$allocator@V?$basic_string@_WU?$char_traits@_W@std@@V?$allocator@_W@2@@std@@@std@@QAEXPAV?$basic_string@_WU?$char_traits@_W@std@@V?$allocator@_W@2@@2@ABV32@@Z ; std::allocator<std::basic_string<wchar_t,std::char_traits<wchar_t>,std::allocator<wchar_t> > >::construct
PUBLIC	??$_Allocate@PAV?$basic_string@_WU?$char_traits@_W@std@@V?$allocator@_W@2@@std@@@std@@YAPAPAV?$basic_string@_WU?$char_traits@_W@std@@V?$allocator@_W@2@@0@IPAPAV10@@Z ; std::_Allocate<std::basic_string<wchar_t,std::char_traits<wchar_t>,std::allocator<wchar_t> > *>
PUBLIC	?allocate@?$allocator@PAV?$basic_string@_WU?$char_traits@_W@std@@V?$allocator@_W@2@@std@@@std@@QAEPAPAV?$basic_string@_WU?$char_traits@_W@std@@V?$allocator@_W@2@@2@I@Z ; std::allocator<std::basic_string<wchar_t,std::char_traits<wchar_t>,std::allocator<wchar_t> > *>::allocate
PUBLIC	?max_size@?$allocator@V?$basic_string@_WU?$char_traits@_W@std@@V?$allocator@_W@2@@std@@@std@@QBEIXZ ; std::allocator<std::basic_string<wchar_t,std::char_traits<wchar_t>,std::allocator<wchar_t> > >::max_size
PUBLIC	?max_size@?$deque@V?$basic_string@_WU?$char_traits@_W@std@@V?$allocator@_W@2@@std@@V?$allocator@V?$basic_string@_WU?$char_traits@_W@std@@V?$allocator@_W@2@@std@@@2@@std@@QBEIXZ ; std::deque<std::basic_string<wchar_t,std::char_traits<wchar_t>,std::allocator<wchar_t> >,std::allocator<std::basic_string<wchar_t,std::char_traits<wchar_t>,std::allocator<wchar_t> > > >::max_size
PUBLIC	?_Xlen@?$deque@V?$basic_string@_WU?$char_traits@_W@std@@V?$allocator@_W@2@@std@@V?$allocator@V?$basic_string@_WU?$char_traits@_W@std@@V?$allocator@_W@2@@std@@@2@@std@@KAXXZ ; std::deque<std::basic_string<wchar_t,std::char_traits<wchar_t>,std::allocator<wchar_t> >,std::allocator<std::basic_string<wchar_t,std::char_traits<wchar_t>,std::allocator<wchar_t> > > >::_Xlen
PUBLIC	??$_Uninit_copy@PAPAV?$basic_string@_WU?$char_traits@_W@std@@V?$allocator@_W@2@@std@@PAPAV12@V?$allocator@PAV?$basic_string@_WU?$char_traits@_W@std@@V?$allocator@_W@2@@std@@@2@@std@@YAPAPAV?$basic_string@_WU?$char_traits@_W@std@@V?$allocator@_W@2@@0@PAPAV10@00AAV?$allocator@PAV?$basic_string@_WU?$char_traits@_W@std@@V?$allocator@_W@2@@std@@@0@U_Scalar_ptr_iterator_tag@0@U_Range_checked_iterator_tag@0@@Z ; std::_Uninit_copy<std::basic_string<wchar_t,std::char_traits<wchar_t>,std::allocator<wchar_t> > * *,std::basic_string<wchar_t,std::char_traits<wchar_t>,std::allocator<wchar_t> > * *,std::allocator<std::basic_string<wchar_t,std::char_traits<wchar_t>,std::allocator<wchar_t> > *> >
PUBLIC	??$unchecked_uninitialized_copy@PAPAV?$basic_string@_WU?$char_traits@_W@std@@V?$allocator@_W@2@@std@@PAPAV12@V?$allocator@PAV?$basic_string@_WU?$char_traits@_W@std@@V?$allocator@_W@2@@std@@@2@@stdext@@YAPAPAV?$basic_string@_WU?$char_traits@_W@std@@V?$allocator@_W@2@@std@@PAPAV12@00AAV?$allocator@PAV?$basic_string@_WU?$char_traits@_W@std@@V?$allocator@_W@2@@std@@@2@@Z ; stdext::unchecked_uninitialized_copy<std::basic_string<wchar_t,std::char_traits<wchar_t>,std::allocator<wchar_t> > * *,std::basic_string<wchar_t,std::char_traits<wchar_t>,std::allocator<wchar_t> > * *,std::allocator<std::basic_string<wchar_t,std::char_traits<wchar_t>,std::allocator<wchar_t> > *> >
PUBLIC	??$_Iter_cat@PAPAV?$basic_string@_WU?$char_traits@_W@std@@V?$allocator@_W@2@@std@@@std@@YA?AUrandom_access_iterator_tag@0@ABQAPAV?$basic_string@_WU?$char_traits@_W@std@@V?$allocator@_W@2@@0@@Z ; std::_Iter_cat<std::basic_string<wchar_t,std::char_traits<wchar_t>,std::allocator<wchar_t> > * *>
PUBLIC	??$_Checked_base@PAPAV?$basic_string@_WU?$char_traits@_W@std@@V?$allocator@_W@2@@std@@@std@@YAPAPAV?$basic_string@_WU?$char_traits@_W@std@@V?$allocator@_W@2@@0@AAPAPAV10@U_Unchanged_checked_iterator_base_type_tag@0@@Z ; std::_Checked_base<std::basic_string<wchar_t,std::char_traits<wchar_t>,std::allocator<wchar_t> > * *>
PUBLIC	??$_Checked_base@PAPAV?$basic_string@_WU?$char_traits@_W@std@@V?$allocator@_W@2@@std@@@std@@YAPAPAV?$basic_string@_WU?$char_traits@_W@std@@V?$allocator@_W@2@@0@AAPAPAV10@@Z ; std::_Checked_base<std::basic_string<wchar_t,std::char_traits<wchar_t>,std::allocator<wchar_t> > * *>
PUBLIC	??$_Fill_n@PAPAV?$basic_string@_WU?$char_traits@_W@std@@V?$allocator@_W@2@@std@@IPAV12@@std@@YAXPAPAV?$basic_string@_WU?$char_traits@_W@std@@V?$allocator@_W@2@@0@IABQAV10@U_Range_checked_iterator_tag@0@@Z ; std::_Fill_n<std::basic_string<wchar_t,std::char_traits<wchar_t>,std::allocator<wchar_t> > * *,unsigned int,std::basic_string<wchar_t,std::char_traits<wchar_t>,std::allocator<wchar_t> > *>
PUBLIC	??$_Fill_n@PAPAV?$basic_string@_WU?$char_traits@_W@std@@V?$allocator@_W@2@@std@@IPAV12@@std@@YAXPAPAV?$basic_string@_WU?$char_traits@_W@std@@V?$allocator@_W@2@@0@IABQAV10@Urandom_access_iterator_tag@0@U_Range_checked_iterator_tag@0@@Z ; std::_Fill_n<std::basic_string<wchar_t,std::char_traits<wchar_t>,std::allocator<wchar_t> > * *,unsigned int,std::basic_string<wchar_t,std::char_traits<wchar_t>,std::allocator<wchar_t> > *>
PUBLIC	??$unchecked_fill_n@PAPAV?$basic_string@_WU?$char_traits@_W@std@@V?$allocator@_W@2@@std@@IPAV12@@stdext@@YAXPAPAV?$basic_string@_WU?$char_traits@_W@std@@V?$allocator@_W@2@@std@@IABQAV12@@Z ; stdext::unchecked_fill_n<std::basic_string<wchar_t,std::char_traits<wchar_t>,std::allocator<wchar_t> > * *,unsigned int,std::basic_string<wchar_t,std::char_traits<wchar_t>,std::allocator<wchar_t> > *>
PUBLIC	??$_Uninit_fill_n@PAPAV?$basic_string@_WU?$char_traits@_W@std@@V?$allocator@_W@2@@std@@IPAV12@V?$allocator@PAV?$basic_string@_WU?$char_traits@_W@std@@V?$allocator@_W@2@@std@@@2@@std@@YAXPAPAV?$basic_string@_WU?$char_traits@_W@std@@V?$allocator@_W@2@@0@IABQAV10@AAV?$allocator@PAV?$basic_string@_WU?$char_traits@_W@std@@V?$allocator@_W@2@@std@@@0@U_Scalar_ptr_iterator_tag@0@U_Range_checked_iterator_tag@0@@Z ; std::_Uninit_fill_n<std::basic_string<wchar_t,std::char_traits<wchar_t>,std::allocator<wchar_t> > * *,unsigned int,std::basic_string<wchar_t,std::char_traits<wchar_t>,std::allocator<wchar_t> > *,std::allocator<std::basic_string<wchar_t,std::char_traits<wchar_t>,std::allocator<wchar_t> > *> >
PUBLIC	??$unchecked_uninitialized_fill_n@PAPAV?$basic_string@_WU?$char_traits@_W@std@@V?$allocator@_W@2@@std@@IPAV12@V?$allocator@PAV?$basic_string@_WU?$char_traits@_W@std@@V?$allocator@_W@2@@std@@@2@@stdext@@YAXPAPAV?$basic_string@_WU?$char_traits@_W@std@@V?$allocator@_W@2@@std@@IABQAV12@AAV?$allocator@PAV?$basic_string@_WU?$char_traits@_W@std@@V?$allocator@_W@2@@std@@@2@@Z ; stdext::unchecked_uninitialized_fill_n<std::basic_string<wchar_t,std::char_traits<wchar_t>,std::allocator<wchar_t> > * *,unsigned int,std::basic_string<wchar_t,std::char_traits<wchar_t>,std::allocator<wchar_t> > *,std::allocator<std::basic_string<wchar_t,std::char_traits<wchar_t>,std::allocator<wchar_t> > *> >
PUBLIC	??$_Ptr_cat@PAPAV?$basic_string@_WU?$char_traits@_W@std@@V?$allocator@_W@2@@std@@PAPAV12@@std@@YA?AU_Scalar_ptr_iterator_tag@0@AAPAPAV?$basic_string@_WU?$char_traits@_W@std@@V?$allocator@_W@2@@0@0@Z ; std::_Ptr_cat<std::basic_string<wchar_t,std::char_traits<wchar_t>,std::allocator<wchar_t> > * *,std::basic_string<wchar_t,std::char_traits<wchar_t>,std::allocator<wchar_t> > * *>
PUBLIC	??$_Destroy_range@V?$allocator@PAV?$basic_string@_WU?$char_traits@_W@std@@V?$allocator@_W@2@@std@@@std@@@std@@YAXPAPAV?$basic_string@_WU?$char_traits@_W@std@@V?$allocator@_W@2@@0@0AAV?$allocator@PAV?$basic_string@_WU?$char_traits@_W@std@@V?$allocator@_W@2@@std@@@0@U_Scalar_ptr_iterator_tag@0@@Z ; std::_Destroy_range<std::allocator<std::basic_string<wchar_t,std::char_traits<wchar_t>,std::allocator<wchar_t> > *> >
PUBLIC	??$_Destroy_range@V?$allocator@PAV?$basic_string@_WU?$char_traits@_W@std@@V?$allocator@_W@2@@std@@@std@@@std@@YAXPAPAV?$basic_string@_WU?$char_traits@_W@std@@V?$allocator@_W@2@@0@0AAV?$allocator@PAV?$basic_string@_WU?$char_traits@_W@std@@V?$allocator@_W@2@@std@@@0@@Z ; std::_Destroy_range<std::allocator<std::basic_string<wchar_t,std::char_traits<wchar_t>,std::allocator<wchar_t> > *> >
PUBLIC	?_Growmap@?$deque@V?$basic_string@_WU?$char_traits@_W@std@@V?$allocator@_W@2@@std@@V?$allocator@V?$basic_string@_WU?$char_traits@_W@std@@V?$allocator@_W@2@@std@@@2@@std@@IAEXI@Z ; std::deque<std::basic_string<wchar_t,std::char_traits<wchar_t>,std::allocator<wchar_t> >,std::allocator<std::basic_string<wchar_t,std::char_traits<wchar_t>,std::allocator<wchar_t> > > >::_Growmap
PUBLIC	?push_back@?$deque@V?$basic_string@_WU?$char_traits@_W@std@@V?$allocator@_W@2@@std@@V?$allocator@V?$basic_string@_WU?$char_traits@_W@std@@V?$allocator@_W@2@@std@@@2@@std@@QAEXABV?$basic_string@_WU?$char_traits@_W@std@@V?$allocator@_W@2@@2@@Z ; std::deque<std::basic_string<wchar_t,std::char_traits<wchar_t>,std::allocator<wchar_t> >,std::allocator<std::basic_string<wchar_t,std::char_traits<wchar_t>,std::allocator<wchar_t> > > >::push_back
PUBLIC	?push@?$stack@V?$basic_string@_WU?$char_traits@_W@std@@V?$allocator@_W@2@@std@@V?$deque@V?$basic_string@_WU?$char_traits@_W@std@@V?$allocator@_W@2@@std@@V?$allocator@V?$basic_string@_WU?$char_traits@_W@std@@V?$allocator@_W@2@@std@@@2@@2@@std@@QAEXABV?$basic_string@_WU?$char_traits@_W@std@@V?$allocator@_W@2@@2@@Z ; std::stack<std::basic_string<wchar_t,std::char_traits<wchar_t>,std::allocator<wchar_t> >,std::deque<std::basic_string<wchar_t,std::char_traits<wchar_t>,std::allocator<wchar_t> >,std::allocator<std::basic_string<wchar_t,std::char_traits<wchar_t>,std::allocator<wchar_t> > > > >::push
PUBLIC	?pop@?$stack@V?$basic_string@_WU?$char_traits@_W@std@@V?$allocator@_W@2@@std@@V?$deque@V?$basic_string@_WU?$char_traits@_W@std@@V?$allocator@_W@2@@std@@V?$allocator@V?$basic_string@_WU?$char_traits@_W@std@@V?$allocator@_W@2@@std@@@2@@2@@std@@QAEXXZ ; std::stack<std::basic_string<wchar_t,std::char_traits<wchar_t>,std::allocator<wchar_t> >,std::deque<std::basic_string<wchar_t,std::char_traits<wchar_t>,std::allocator<wchar_t> >,std::allocator<std::basic_string<wchar_t,std::char_traits<wchar_t>,std::allocator<wchar_t> > > > >::pop
PUBLIC	??1?$_Container_base_aux_alloc_real@V?$allocator@V?$basic_string@_WU?$char_traits@_W@std@@V?$allocator@_W@2@@std@@@std@@@std@@IAE@XZ ; std::_Container_base_aux_alloc_real<std::allocator<std::basic_string<wchar_t,std::char_traits<wchar_t>,std::allocator<wchar_t> > > >::~_Container_base_aux_alloc_real<std::allocator<std::basic_string<wchar_t,std::char_traits<wchar_t>,std::allocator<wchar_t> > > >
PUBLIC	??1?$_Deque_map@V?$basic_string@_WU?$char_traits@_W@std@@V?$allocator@_W@2@@std@@V?$allocator@V?$basic_string@_WU?$char_traits@_W@std@@V?$allocator@_W@2@@std@@@2@@std@@QAE@XZ ; std::_Deque_map<std::basic_string<wchar_t,std::char_traits<wchar_t>,std::allocator<wchar_t> >,std::allocator<std::basic_string<wchar_t,std::char_traits<wchar_t>,std::allocator<wchar_t> > > >::~_Deque_map<std::basic_string<wchar_t,std::char_traits<wchar_t>,std::allocator<wchar_t> >,std::allocator<std::basic_string<wchar_t,std::char_traits<wchar_t>,std::allocator<wchar_t> > > >
PUBLIC	??1?$_Deque_val@V?$basic_string@_WU?$char_traits@_W@std@@V?$allocator@_W@2@@std@@V?$allocator@V?$basic_string@_WU?$char_traits@_W@std@@V?$allocator@_W@2@@std@@@2@@std@@QAE@XZ ; std::_Deque_val<std::basic_string<wchar_t,std::char_traits<wchar_t>,std::allocator<wchar_t> >,std::allocator<std::basic_string<wchar_t,std::char_traits<wchar_t>,std::allocator<wchar_t> > > >::~_Deque_val<std::basic_string<wchar_t,std::char_traits<wchar_t>,std::allocator<wchar_t> >,std::allocator<std::basic_string<wchar_t,std::char_traits<wchar_t>,std::allocator<wchar_t> > > >
PUBLIC	?deallocate@?$allocator@V?$basic_string@_WU?$char_traits@_W@std@@V?$allocator@_W@2@@std@@@std@@QAEXPAV?$basic_string@_WU?$char_traits@_W@std@@V?$allocator@_W@2@@2@I@Z ; std::allocator<std::basic_string<wchar_t,std::char_traits<wchar_t>,std::allocator<wchar_t> > >::deallocate
PUBLIC	?deallocate@?$allocator@PAV?$basic_string@_WU?$char_traits@_W@std@@V?$allocator@_W@2@@std@@@std@@QAEXPAPAV?$basic_string@_WU?$char_traits@_W@std@@V?$allocator@_W@2@@2@I@Z ; std::allocator<std::basic_string<wchar_t,std::char_traits<wchar_t>,std::allocator<wchar_t> > *>::deallocate
PUBLIC	??$_Destroy@PAV?$basic_string@_WU?$char_traits@_W@std@@V?$allocator@_W@2@@std@@@std@@YAXPAPAV?$basic_string@_WU?$char_traits@_W@std@@V?$allocator@_W@2@@0@@Z ; std::_Destroy<std::basic_string<wchar_t,std::char_traits<wchar_t>,std::allocator<wchar_t> > *>
PUBLIC	?destroy@?$allocator@PAV?$basic_string@_WU?$char_traits@_W@std@@V?$allocator@_W@2@@std@@@std@@QAEXPAPAV?$basic_string@_WU?$char_traits@_W@std@@V?$allocator@_W@2@@2@@Z ; std::allocator<std::basic_string<wchar_t,std::char_traits<wchar_t>,std::allocator<wchar_t> > *>::destroy
PUBLIC	??_G?$basic_string@_WU?$char_traits@_W@std@@V?$allocator@_W@2@@std@@QAEPAXI@Z ; std::basic_string<wchar_t,std::char_traits<wchar_t>,std::allocator<wchar_t> >::`scalar deleting destructor'
PUBLIC	??$_Destroy@V?$basic_string@_WU?$char_traits@_W@std@@V?$allocator@_W@2@@std@@@std@@YAXPAV?$basic_string@_WU?$char_traits@_W@std@@V?$allocator@_W@2@@0@@Z ; std::_Destroy<std::basic_string<wchar_t,std::char_traits<wchar_t>,std::allocator<wchar_t> > >
PUBLIC	?destroy@?$allocator@V?$basic_string@_WU?$char_traits@_W@std@@V?$allocator@_W@2@@std@@@std@@QAEXPAV?$basic_string@_WU?$char_traits@_W@std@@V?$allocator@_W@2@@2@@Z ; std::allocator<std::basic_string<wchar_t,std::char_traits<wchar_t>,std::allocator<wchar_t> > >::destroy
PUBLIC	?empty@?$deque@V?$basic_string@_WU?$char_traits@_W@std@@V?$allocator@_W@2@@std@@V?$allocator@V?$basic_string@_WU?$char_traits@_W@std@@V?$allocator@_W@2@@std@@@2@@std@@QBE_NXZ ; std::deque<std::basic_string<wchar_t,std::char_traits<wchar_t>,std::allocator<wchar_t> >,std::allocator<std::basic_string<wchar_t,std::char_traits<wchar_t>,std::allocator<wchar_t> > > >::empty
PUBLIC	?pop_back@?$deque@V?$basic_string@_WU?$char_traits@_W@std@@V?$allocator@_W@2@@std@@V?$allocator@V?$basic_string@_WU?$char_traits@_W@std@@V?$allocator@_W@2@@std@@@2@@std@@QAEXXZ ; std::deque<std::basic_string<wchar_t,std::char_traits<wchar_t>,std::allocator<wchar_t> >,std::allocator<std::basic_string<wchar_t,std::char_traits<wchar_t>,std::allocator<wchar_t> > > >::pop_back
PUBLIC	?_Tidy@?$deque@V?$basic_string@_WU?$char_traits@_W@std@@V?$allocator@_W@2@@std@@V?$allocator@V?$basic_string@_WU?$char_traits@_W@std@@V?$allocator@_W@2@@std@@@2@@std@@IAEXXZ ; std::deque<std::basic_string<wchar_t,std::char_traits<wchar_t>,std::allocator<wchar_t> >,std::allocator<std::basic_string<wchar_t,std::char_traits<wchar_t>,std::allocator<wchar_t> > > >::_Tidy
PUBLIC	??1?$deque@V?$basic_string@_WU?$char_traits@_W@std@@V?$allocator@_W@2@@std@@V?$allocator@V?$basic_string@_WU?$char_traits@_W@std@@V?$allocator@_W@2@@std@@@2@@std@@QAE@XZ ; std::deque<std::basic_string<wchar_t,std::char_traits<wchar_t>,std::allocator<wchar_t> >,std::allocator<std::basic_string<wchar_t,std::char_traits<wchar_t>,std::allocator<wchar_t> > > >::~deque<std::basic_string<wchar_t,std::char_traits<wchar_t>,std::allocator<wchar_t> >,std::allocator<std::basic_string<wchar_t,std::char_traits<wchar_t>,std::allocator<wchar_t> > > >
PUBLIC	??1?$stack@V?$basic_string@_WU?$char_traits@_W@std@@V?$allocator@_W@2@@std@@V?$deque@V?$basic_string@_WU?$char_traits@_W@std@@V?$allocator@_W@2@@std@@V?$allocator@V?$basic_string@_WU?$char_traits@_W@std@@V?$allocator@_W@2@@std@@@2@@2@@std@@QAE@XZ ; std::stack<std::basic_string<wchar_t,std::char_traits<wchar_t>,std::allocator<wchar_t> >,std::deque<std::basic_string<wchar_t,std::char_traits<wchar_t>,std::allocator<wchar_t> >,std::allocator<std::basic_string<wchar_t,std::char_traits<wchar_t>,std::allocator<wchar_t> > > > >::~stack<std::basic_string<wchar_t,std::char_traits<wchar_t>,std::allocator<wchar_t> >,std::deque<std::basic_string<wchar_t,std::char_traits<wchar_t>,std::allocator<wchar_t> >,std::allocator<std::basic_string<wchar_t,std::char_traits<wchar_t>,std::allocator<wchar_t> > > > >
PUBLIC	??$?6_WU?$char_traits@_W@std@@@std@@YAAAV?$basic_ostream@_WU?$char_traits@_W@std@@@0@AAV10@D@Z ; std::operator<<<wchar_t,std::char_traits<wchar_t> >
PUBLIC	?CorSigUncompressData@@YAJPBEKPAK1@Z		; CorSigUncompressData
PUBLIC	?CorSigUncompressData@@YAKPBEPAK@Z		; CorSigUncompressData
PUBLIC	?CorSigUncompressToken@@YAKPBEPAI@Z		; CorSigUncompressToken
PUBLIC	??$?6_WU?$char_traits@_W@std@@@std@@YAAAV?$basic_ostream@_WU?$char_traits@_W@std@@@0@AAV10@PB_W@Z ; std::operator<<<wchar_t,std::char_traits<wchar_t> >
PUBLIC	?deallocate@?$allocator@PA_W@std@@QAEXPAPA_WI@Z	; std::allocator<wchar_t *>::deallocate
PUBLIC	??$_Allocate@PA_W@std@@YAPAPA_WIPAPA_W@Z	; std::_Allocate<wchar_t *>
PUBLIC	?allocate@?$allocator@PA_W@std@@QAEPAPA_WI@Z	; std::allocator<wchar_t *>::allocate
PUBLIC	?max_size@?$deque@_WV?$allocator@_W@std@@@std@@QBEIXZ ; std::deque<wchar_t,std::allocator<wchar_t> >::max_size
PUBLIC	?_Xlen@?$deque@_WV?$allocator@_W@std@@@std@@KAXXZ ; std::deque<wchar_t,std::allocator<wchar_t> >::_Xlen
PUBLIC	??$_Uninit_copy@PAPA_WPAPA_WV?$allocator@PA_W@std@@@std@@YAPAPA_WPAPA_W00AAV?$allocator@PA_W@0@U_Scalar_ptr_iterator_tag@0@U_Range_checked_iterator_tag@0@@Z ; std::_Uninit_copy<wchar_t * *,wchar_t * *,std::allocator<wchar_t *> >
PUBLIC	??$unchecked_uninitialized_copy@PAPA_WPAPA_WV?$allocator@PA_W@std@@@stdext@@YAPAPA_WPAPA_W00AAV?$allocator@PA_W@std@@@Z ; stdext::unchecked_uninitialized_copy<wchar_t * *,wchar_t * *,std::allocator<wchar_t *> >
PUBLIC	??$_Iter_cat@PAPA_W@std@@YA?AUrandom_access_iterator_tag@0@ABQAPA_W@Z ; std::_Iter_cat<wchar_t * *>
PUBLIC	??$_Checked_base@PAPA_W@std@@YAPAPA_WAAPAPA_WU_Unchanged_checked_iterator_base_type_tag@0@@Z ; std::_Checked_base<wchar_t * *>
PUBLIC	??$_Checked_base@PAPA_W@std@@YAPAPA_WAAPAPA_W@Z	; std::_Checked_base<wchar_t * *>
PUBLIC	??$_Fill_n@PAPA_WIPA_W@std@@YAXPAPA_WIABQA_WU_Range_checked_iterator_tag@0@@Z ; std::_Fill_n<wchar_t * *,unsigned int,wchar_t *>
PUBLIC	??$_Fill_n@PAPA_WIPA_W@std@@YAXPAPA_WIABQA_WUrandom_access_iterator_tag@0@U_Range_checked_iterator_tag@0@@Z ; std::_Fill_n<wchar_t * *,unsigned int,wchar_t *>
PUBLIC	??$unchecked_fill_n@PAPA_WIPA_W@stdext@@YAXPAPA_WIABQA_W@Z ; stdext::unchecked_fill_n<wchar_t * *,unsigned int,wchar_t *>
PUBLIC	??$_Uninit_fill_n@PAPA_WIPA_WV?$allocator@PA_W@std@@@std@@YAXPAPA_WIABQA_WAAV?$allocator@PA_W@0@U_Scalar_ptr_iterator_tag@0@U_Range_checked_iterator_tag@0@@Z ; std::_Uninit_fill_n<wchar_t * *,unsigned int,wchar_t *,std::allocator<wchar_t *> >
PUBLIC	??$unchecked_uninitialized_fill_n@PAPA_WIPA_WV?$allocator@PA_W@std@@@stdext@@YAXPAPA_WIABQA_WAAV?$allocator@PA_W@std@@@Z ; stdext::unchecked_uninitialized_fill_n<wchar_t * *,unsigned int,wchar_t *,std::allocator<wchar_t *> >
PUBLIC	??$_Ptr_cat@PAPA_WPAPA_W@std@@YA?AU_Scalar_ptr_iterator_tag@0@AAPAPA_W0@Z ; std::_Ptr_cat<wchar_t * *,wchar_t * *>
PUBLIC	??$_Destroy_range@V?$allocator@PA_W@std@@@std@@YAXPAPA_W0AAV?$allocator@PA_W@0@U_Scalar_ptr_iterator_tag@0@@Z ; std::_Destroy_range<std::allocator<wchar_t *> >
PUBLIC	??$_Destroy_range@V?$allocator@PA_W@std@@@std@@YAXPAPA_W0AAV?$allocator@PA_W@0@@Z ; std::_Destroy_range<std::allocator<wchar_t *> >
PUBLIC	?_Growmap@?$deque@_WV?$allocator@_W@std@@@std@@IAEXI@Z ; std::deque<wchar_t,std::allocator<wchar_t> >::_Growmap
PUBLIC	?push_back@?$deque@_WV?$allocator@_W@std@@@std@@QAEXAB_W@Z ; std::deque<wchar_t,std::allocator<wchar_t> >::push_back
PUBLIC	?push@?$stack@_WV?$deque@_WV?$allocator@_W@std@@@std@@@std@@QAEXAB_W@Z ; std::stack<wchar_t,std::deque<wchar_t,std::allocator<wchar_t> > >::push
PUBLIC	?empty@?$stack@_WV?$deque@_WV?$allocator@_W@std@@@std@@@std@@QBE_NXZ ; std::stack<wchar_t,std::deque<wchar_t,std::allocator<wchar_t> > >::empty
PUBLIC	??0?$_Iterator_with_base@Urandom_access_iterator_tag@std@@_WHPB_WAB_WV_Iterator_base_aux@2@@std@@QAE@XZ ; std::_Iterator_with_base<std::random_access_iterator_tag,wchar_t,int,wchar_t const *,wchar_t const &,std::_Iterator_base_aux>::_Iterator_with_base<std::random_access_iterator_tag,wchar_t,int,wchar_t const *,wchar_t const &,std::_Iterator_base_aux>
PUBLIC	??0?$_Ranit@_WHPB_WAB_W@std@@QAE@XZ		; std::_Ranit<wchar_t,int,wchar_t const *,wchar_t const &>::_Ranit<wchar_t,int,wchar_t const *,wchar_t const &>
PUBLIC	??0?$_Deque_const_iterator@_WV?$allocator@_W@std@@$00@std@@QAE@IPBV_Container_base_aux@1@@Z ; std::_Deque_const_iterator<wchar_t,std::allocator<wchar_t>,1>::_Deque_const_iterator<wchar_t,std::allocator<wchar_t>,1>
PUBLIC	??0?$_Deque_iterator@_WV?$allocator@_W@std@@$00@std@@QAE@IPBV_Container_base_aux@1@@Z ; std::_Deque_iterator<wchar_t,std::allocator<wchar_t>,1>::_Deque_iterator<wchar_t,std::allocator<wchar_t>,1>
PUBLIC	?end@?$deque@_WV?$allocator@_W@std@@@std@@QAE?AV?$_Deque_iterator@_WV?$allocator@_W@std@@$00@2@XZ ; std::deque<wchar_t,std::allocator<wchar_t> >::end
PUBLIC	??D?$_Deque_const_iterator@_WV?$allocator@_W@std@@$00@std@@QBEAB_WXZ ; std::_Deque_const_iterator<wchar_t,std::allocator<wchar_t>,1>::operator*
PUBLIC	??D?$_Deque_iterator@_WV?$allocator@_W@std@@$00@std@@QBEAA_WXZ ; std::_Deque_iterator<wchar_t,std::allocator<wchar_t>,1>::operator*
PUBLIC	??Y?$_Deque_const_iterator@_WV?$allocator@_W@std@@$00@std@@QAEAAV01@H@Z ; std::_Deque_const_iterator<wchar_t,std::allocator<wchar_t>,1>::operator+=
PUBLIC	??Y?$_Deque_iterator@_WV?$allocator@_W@std@@$00@std@@QAEAAV01@H@Z ; std::_Deque_iterator<wchar_t,std::allocator<wchar_t>,1>::operator+=
PUBLIC	??Z?$_Deque_iterator@_WV?$allocator@_W@std@@$00@std@@QAEAAV01@H@Z ; std::_Deque_iterator<wchar_t,std::allocator<wchar_t>,1>::operator-=
PUBLIC	??G?$_Deque_iterator@_WV?$allocator@_W@std@@$00@std@@QBE?AV01@H@Z ; std::_Deque_iterator<wchar_t,std::allocator<wchar_t>,1>::operator-
PUBLIC	?back@?$deque@_WV?$allocator@_W@std@@@std@@QAEAA_WXZ ; std::deque<wchar_t,std::allocator<wchar_t> >::back
PUBLIC	?top@?$stack@_WV?$deque@_WV?$allocator@_W@std@@@std@@@std@@QAEAA_WXZ ; std::stack<wchar_t,std::deque<wchar_t,std::allocator<wchar_t> > >::top
PUBLIC	?empty@?$deque@_WV?$allocator@_W@std@@@std@@QBE_NXZ ; std::deque<wchar_t,std::allocator<wchar_t> >::empty
PUBLIC	?pop_back@?$deque@_WV?$allocator@_W@std@@@std@@QAEXXZ ; std::deque<wchar_t,std::allocator<wchar_t> >::pop_back
PUBLIC	?pop@?$stack@_WV?$deque@_WV?$allocator@_W@std@@@std@@@std@@QAEXXZ ; std::stack<wchar_t,std::deque<wchar_t,std::allocator<wchar_t> > >::pop
PUBLIC	??_C@_13KJIIAINM@?$AA?$CL?$AA?$AA@		; `string'
PUBLIC	??_C@_13JOFGPIOO@?$AA?4?$AA?$AA@		; `string'
PUBLIC	??_C@_19HFFGOOIH@?$AAv?$AAo?$AAi?$AAd?$AA?$AA@	; `string'
PUBLIC	??_C@_13HOIJIPNN@?$AA?5?$AA?$AA@		; `string'
PUBLIC	??_C@_17CMKEDJDI@?$AAo?$AAu?$AAt?$AA?$AA@	; `string'
PUBLIC	??_C@_17DCNMIAEN@?$AAr?$AAe?$AAf?$AA?$AA@	; `string'
PUBLIC	??_C@_19EIPOAEOH@?$AAb?$AAo?$AAo?$AAl?$AA?$AA@	; `string'
PUBLIC	??_C@_19CHDFCHBM@?$AAc?$AAh?$AAa?$AAr?$AA?$AA@	; `string'
PUBLIC	??_C@_1O@PLMJMAHL@?$AAI?$AAn?$AAt?$AAP?$AAt?$AAr?$AA?$AA@ ; `string'
PUBLIC	??_C@_1BA@HEMJOHJL@?$AAU?$AAI?$AAn?$AAt?$AAP?$AAt?$AAr?$AA?$AA@ ; `string'
PUBLIC	??_C@_1M@CNLIHMIE@?$AAs?$AAb?$AAy?$AAt?$AAe?$AA?$AA@ ; `string'
PUBLIC	??_C@_19OGDDIBJJ@?$AAb?$AAy?$AAt?$AAe?$AA?$AA@	; `string'
PUBLIC	??_C@_1M@LOLCAHAG@?$AAs?$AAh?$AAo?$AAr?$AAt?$AA?$AA@ ; `string'
PUBLIC	??_C@_1O@HKBAGFIG@?$AAu?$AAs?$AAh?$AAo?$AAr?$AAt?$AA?$AA@ ; `string'
PUBLIC	??_C@_17IDNKMCOH@?$AAi?$AAn?$AAt?$AA?$AA@	; `string'
PUBLIC	??_C@_19BFBCDLCE@?$AAu?$AAi?$AAn?$AAt?$AA?$AA@	; `string'
PUBLIC	??_C@_19EKGKGAPA@?$AAl?$AAo?$AAn?$AAg?$AA?$AA@	; `string'
PUBLIC	??_C@_1M@GONMDIAN@?$AAu?$AAl?$AAo?$AAn?$AAg?$AA?$AA@ ; `string'
PUBLIC	??_C@_1M@KGKAENKF@?$AAf?$AAl?$AAo?$AAa?$AAt?$AA?$AA@ ; `string'
PUBLIC	??_C@_1O@BAJDFEHJ@?$AAd?$AAo?$AAu?$AAb?$AAl?$AAe?$AA?$AA@ ; `string'
PUBLIC	??_C@_1O@DGBBOFII@?$AAs?$AAt?$AAr?$AAi?$AAn?$AAg?$AA?$AA@ ; `string'
PUBLIC	??_C@_1O@EJHDPCJ@?$AAo?$AAb?$AAj?$AAe?$AAc?$AAt?$AA?$AA@ ; `string'
PUBLIC	??_C@_13HGPDMIBE@?$AA?$DP?$AA?$AA@		; `string'
PUBLIC	??_C@_19CAKNEAEL@?$AAc?$AAm?$AAo?$AAd?$AA?$AA@	; `string'
PUBLIC	??_C@_1M@HBLOHCOL@?$AAf?$AAn?$AAp?$AAt?$AAr?$AA?$AA@ ; `string'
PUBLIC	??_C@_13BBDEGPLJ@?$AA?$CK?$AA?$AA@		; `string'
PUBLIC	??_C@_13GEEGGHPK@?$AA?$DM?$AA?$AA@		; `string'
PUBLIC	??_C@_13DEFPDAGF@?$AA?0?$AA?$AA@		; `string'
PUBLIC	??_C@_13MOEPKPHB@?$AA?$DO?$AA?$AA@		; `string'
PUBLIC	??_C@_13MGDFOILI@?$AA?$CB?$AA?$AA@		; `string'
PUBLIC	??_C@_0BC@KBDMBKEH@deque?$DMT?$DO?5too?5long?$AA@ ; `string'
EXTRN	__imp_??0?$allocator@_W@std@@QAE@XZ:PROC
EXTRN	__imp_??0?$allocator@_W@std@@QAE@ABV01@@Z:PROC
EXTRN	__imp_?deallocate@?$allocator@_W@std@@QAEXPA_WI@Z:PROC
EXTRN	__imp_??4?$basic_string@_WU?$char_traits@_W@std@@V?$allocator@_W@2@@std@@QAEAAV01@ABV01@@Z:PROC
EXTRN	__imp_??0?$basic_string@_WU?$char_traits@_W@std@@V?$allocator@_W@2@@std@@QAE@ABV01@@Z:PROC
EXTRN	__imp_??$?6_WU?$char_traits@_W@std@@V?$allocator@_W@1@@std@@YAAAV?$basic_ostream@_WU?$char_traits@_W@std@@@0@AAV10@ABV?$basic_string@_WU?$char_traits@_W@std@@V?$allocator@_W@2@@0@@Z:PROC
EXTRN	__imp_??6?$basic_ostream@_WU?$char_traits@_W@std@@@std@@QAEAAV01@H@Z:PROC
EXTRN	__imp_?length@?$char_traits@_W@std@@SAIPB_W@Z:PROC
EXTRN	__imp_?sputn@?$basic_streambuf@_WU?$char_traits@_W@std@@@std@@QAEHPB_WH@Z:PROC
EXTRN	__imp_?allocate@?$allocator@_W@std@@QAEPA_WI@Z:PROC
EXTRN	__imp_?construct@?$allocator@_W@std@@QAEXPA_WAB_W@Z:PROC
EXTRN	__imp_?max_size@?$allocator@_W@std@@QBEIXZ:PROC
EXTRN	__imp__memmove_s:PROC
EXTRN	__imp_?destroy@?$allocator@_W@std@@QAEXPA_W@Z:PROC
;	COMDAT ??_C@_0BC@KBDMBKEH@deque?$DMT?$DO?5too?5long?$AA@
CONST	SEGMENT
??_C@_0BC@KBDMBKEH@deque?$DMT?$DO?5too?5long?$AA@ DB 'deque<T> too long', 00H ; `string'
CONST	ENDS
;	COMDAT ??_C@_13MGDFOILI@?$AA?$CB?$AA?$AA@
CONST	SEGMENT
??_C@_13MGDFOILI@?$AA?$CB?$AA?$AA@ DB '!', 00H, 00H, 00H ; `string'
CONST	ENDS
;	COMDAT ??_C@_13MOEPKPHB@?$AA?$DO?$AA?$AA@
CONST	SEGMENT
??_C@_13MOEPKPHB@?$AA?$DO?$AA?$AA@ DB '>', 00H, 00H, 00H ; `string'
CONST	ENDS
;	COMDAT ??_C@_13DEFPDAGF@?$AA?0?$AA?$AA@
CONST	SEGMENT
??_C@_13DEFPDAGF@?$AA?0?$AA?$AA@ DB ',', 00H, 00H, 00H	; `string'
CONST	ENDS
;	COMDAT ??_C@_13GEEGGHPK@?$AA?$DM?$AA?$AA@
CONST	SEGMENT
??_C@_13GEEGGHPK@?$AA?$DM?$AA?$AA@ DB '<', 00H, 00H, 00H ; `string'
CONST	ENDS
;	COMDAT ??_C@_13BBDEGPLJ@?$AA?$CK?$AA?$AA@
CONST	SEGMENT
??_C@_13BBDEGPLJ@?$AA?$CK?$AA?$AA@ DB '*', 00H, 00H, 00H ; `string'
CONST	ENDS
;	COMDAT ??_C@_1M@HBLOHCOL@?$AAf?$AAn?$AAp?$AAt?$AAr?$AA?$AA@
CONST	SEGMENT
??_C@_1M@HBLOHCOL@?$AAf?$AAn?$AAp?$AAt?$AAr?$AA?$AA@ DB 'f', 00H, 'n', 00H
	DB	'p', 00H, 't', 00H, 'r', 00H, 00H, 00H	; `string'
CONST	ENDS
;	COMDAT ??_C@_19CAKNEAEL@?$AAc?$AAm?$AAo?$AAd?$AA?$AA@
CONST	SEGMENT
??_C@_19CAKNEAEL@?$AAc?$AAm?$AAo?$AAd?$AA?$AA@ DB 'c', 00H, 'm', 00H, 'o', 00H
	DB	'd', 00H, 00H, 00H				; `string'
CONST	ENDS
;	COMDAT ??_C@_13HGPDMIBE@?$AA?$DP?$AA?$AA@
CONST	SEGMENT
??_C@_13HGPDMIBE@?$AA?$DP?$AA?$AA@ DB '?', 00H, 00H, 00H ; `string'
CONST	ENDS
;	COMDAT ??_C@_1O@EJHDPCJ@?$AAo?$AAb?$AAj?$AAe?$AAc?$AAt?$AA?$AA@
CONST	SEGMENT
??_C@_1O@EJHDPCJ@?$AAo?$AAb?$AAj?$AAe?$AAc?$AAt?$AA?$AA@ DB 'o', 00H, 'b', 00H
	DB	'j', 00H, 'e', 00H, 'c', 00H, 't', 00H, 00H, 00H ; `string'
CONST	ENDS
;	COMDAT ??_C@_1O@DGBBOFII@?$AAs?$AAt?$AAr?$AAi?$AAn?$AAg?$AA?$AA@
CONST	SEGMENT
??_C@_1O@DGBBOFII@?$AAs?$AAt?$AAr?$AAi?$AAn?$AAg?$AA?$AA@ DB 's', 00H, 't'
	DB	00H, 'r', 00H, 'i', 00H, 'n', 00H, 'g', 00H, 00H, 00H ; `string'
CONST	ENDS
;	COMDAT ??_C@_1O@BAJDFEHJ@?$AAd?$AAo?$AAu?$AAb?$AAl?$AAe?$AA?$AA@
CONST	SEGMENT
??_C@_1O@BAJDFEHJ@?$AAd?$AAo?$AAu?$AAb?$AAl?$AAe?$AA?$AA@ DB 'd', 00H, 'o'
	DB	00H, 'u', 00H, 'b', 00H, 'l', 00H, 'e', 00H, 00H, 00H ; `string'
CONST	ENDS
;	COMDAT ??_C@_1M@KGKAENKF@?$AAf?$AAl?$AAo?$AAa?$AAt?$AA?$AA@
CONST	SEGMENT
??_C@_1M@KGKAENKF@?$AAf?$AAl?$AAo?$AAa?$AAt?$AA?$AA@ DB 'f', 00H, 'l', 00H
	DB	'o', 00H, 'a', 00H, 't', 00H, 00H, 00H	; `string'
CONST	ENDS
;	COMDAT ??_C@_1M@GONMDIAN@?$AAu?$AAl?$AAo?$AAn?$AAg?$AA?$AA@
CONST	SEGMENT
??_C@_1M@GONMDIAN@?$AAu?$AAl?$AAo?$AAn?$AAg?$AA?$AA@ DB 'u', 00H, 'l', 00H
	DB	'o', 00H, 'n', 00H, 'g', 00H, 00H, 00H	; `string'
CONST	ENDS
;	COMDAT ??_C@_19EKGKGAPA@?$AAl?$AAo?$AAn?$AAg?$AA?$AA@
CONST	SEGMENT
??_C@_19EKGKGAPA@?$AAl?$AAo?$AAn?$AAg?$AA?$AA@ DB 'l', 00H, 'o', 00H, 'n', 00H
	DB	'g', 00H, 00H, 00H				; `string'
CONST	ENDS
;	COMDAT ??_C@_19BFBCDLCE@?$AAu?$AAi?$AAn?$AAt?$AA?$AA@
CONST	SEGMENT
??_C@_19BFBCDLCE@?$AAu?$AAi?$AAn?$AAt?$AA?$AA@ DB 'u', 00H, 'i', 00H, 'n', 00H
	DB	't', 00H, 00H, 00H				; `string'
CONST	ENDS
;	COMDAT ??_C@_17IDNKMCOH@?$AAi?$AAn?$AAt?$AA?$AA@
CONST	SEGMENT
??_C@_17IDNKMCOH@?$AAi?$AAn?$AAt?$AA?$AA@ DB 'i', 00H, 'n', 00H, 't', 00H
	DB	00H, 00H					; `string'
CONST	ENDS
;	COMDAT ??_C@_1O@HKBAGFIG@?$AAu?$AAs?$AAh?$AAo?$AAr?$AAt?$AA?$AA@
CONST	SEGMENT
??_C@_1O@HKBAGFIG@?$AAu?$AAs?$AAh?$AAo?$AAr?$AAt?$AA?$AA@ DB 'u', 00H, 's'
	DB	00H, 'h', 00H, 'o', 00H, 'r', 00H, 't', 00H, 00H, 00H ; `string'
CONST	ENDS
;	COMDAT ??_C@_1M@LOLCAHAG@?$AAs?$AAh?$AAo?$AAr?$AAt?$AA?$AA@
CONST	SEGMENT
??_C@_1M@LOLCAHAG@?$AAs?$AAh?$AAo?$AAr?$AAt?$AA?$AA@ DB 's', 00H, 'h', 00H
	DB	'o', 00H, 'r', 00H, 't', 00H, 00H, 00H	; `string'
CONST	ENDS
;	COMDAT ??_C@_19OGDDIBJJ@?$AAb?$AAy?$AAt?$AAe?$AA?$AA@
CONST	SEGMENT
??_C@_19OGDDIBJJ@?$AAb?$AAy?$AAt?$AAe?$AA?$AA@ DB 'b', 00H, 'y', 00H, 't', 00H
	DB	'e', 00H, 00H, 00H				; `string'
CONST	ENDS
;	COMDAT ??_C@_1M@CNLIHMIE@?$AAs?$AAb?$AAy?$AAt?$AAe?$AA?$AA@
CONST	SEGMENT
??_C@_1M@CNLIHMIE@?$AAs?$AAb?$AAy?$AAt?$AAe?$AA?$AA@ DB 's', 00H, 'b', 00H
	DB	'y', 00H, 't', 00H, 'e', 00H, 00H, 00H	; `string'
CONST	ENDS
;	COMDAT ??_C@_1BA@HEMJOHJL@?$AAU?$AAI?$AAn?$AAt?$AAP?$AAt?$AAr?$AA?$AA@
CONST	SEGMENT
??_C@_1BA@HEMJOHJL@?$AAU?$AAI?$AAn?$AAt?$AAP?$AAt?$AAr?$AA?$AA@ DB 'U', 00H
	DB	'I', 00H, 'n', 00H, 't', 00H, 'P', 00H, 't', 00H, 'r', 00H, 00H
	DB	00H						; `string'
CONST	ENDS
;	COMDAT ??_C@_1O@PLMJMAHL@?$AAI?$AAn?$AAt?$AAP?$AAt?$AAr?$AA?$AA@
CONST	SEGMENT
??_C@_1O@PLMJMAHL@?$AAI?$AAn?$AAt?$AAP?$AAt?$AAr?$AA?$AA@ DB 'I', 00H, 'n'
	DB	00H, 't', 00H, 'P', 00H, 't', 00H, 'r', 00H, 00H, 00H ; `string'
CONST	ENDS
;	COMDAT ??_C@_19CHDFCHBM@?$AAc?$AAh?$AAa?$AAr?$AA?$AA@
CONST	SEGMENT
??_C@_19CHDFCHBM@?$AAc?$AAh?$AAa?$AAr?$AA?$AA@ DB 'c', 00H, 'h', 00H, 'a', 00H
	DB	'r', 00H, 00H, 00H				; `string'
CONST	ENDS
;	COMDAT ??_C@_19EIPOAEOH@?$AAb?$AAo?$AAo?$AAl?$AA?$AA@
CONST	SEGMENT
??_C@_19EIPOAEOH@?$AAb?$AAo?$AAo?$AAl?$AA?$AA@ DB 'b', 00H, 'o', 00H, 'o', 00H
	DB	'l', 00H, 00H, 00H				; `string'
CONST	ENDS
;	COMDAT ??_C@_17DCNMIAEN@?$AAr?$AAe?$AAf?$AA?$AA@
CONST	SEGMENT
??_C@_17DCNMIAEN@?$AAr?$AAe?$AAf?$AA?$AA@ DB 'r', 00H, 'e', 00H, 'f', 00H
	DB	00H, 00H					; `string'
CONST	ENDS
;	COMDAT ??_C@_17CMKEDJDI@?$AAo?$AAu?$AAt?$AA?$AA@
CONST	SEGMENT
??_C@_17CMKEDJDI@?$AAo?$AAu?$AAt?$AA?$AA@ DB 'o', 00H, 'u', 00H, 't', 00H
	DB	00H, 00H					; `string'
CONST	ENDS
;	COMDAT ??_C@_13HOIJIPNN@?$AA?5?$AA?$AA@
CONST	SEGMENT
??_C@_13HOIJIPNN@?$AA?5?$AA?$AA@ DB ' ', 00H, 00H, 00H	; `string'
CONST	ENDS
;	COMDAT ??_C@_19HFFGOOIH@?$AAv?$AAo?$AAi?$AAd?$AA?$AA@
CONST	SEGMENT
??_C@_19HFFGOOIH@?$AAv?$AAo?$AAi?$AAd?$AA?$AA@ DB 'v', 00H, 'o', 00H, 'i', 00H
	DB	'd', 00H, 00H, 00H				; `string'
CONST	ENDS
;	COMDAT ??_C@_13JOFGPIOO@?$AA?4?$AA?$AA@
CONST	SEGMENT
??_C@_13JOFGPIOO@?$AA?4?$AA?$AA@ DB '.', 00H, 00H, 00H	; `string'
CONST	ENDS
;	COMDAT ??_C@_13KJIIAINM@?$AA?$CL?$AA?$AA@
CONST	SEGMENT
??_C@_13KJIIAINM@?$AA?$CL?$AA?$AA@ DB '+', 00H, 00H, 00H ; `string'
_g_tkCorEncodeToken DD 02000000H
	DD	01000000H
	DD	01b000000H
	DD	072000000H
_mscorlibkey DB	00H
	DB	00H
	DB	00H
	DB	00H
	DB	00H
	DB	00H
	DB	00H
	DB	00H
	DB	04H
	DB	00H
	DB	00H
	DB	00H
	DB	00H
	DB	00H
	DB	00H
	DB	00H
_systemdrawingkey DB 00H
	DB	024H
	DB	00H
	DB	00H
	DB	04H
	DB	080H
	DB	00H
	DB	00H
	DB	094H
	DB	00H
	DB	00H
	DB	00H
	DB	06H
	DB	02H
	DB	00H
	DB	00H
	DB	00H
	DB	024H
	DB	00H
	DB	00H
	DB	052H
	DB	053H
	DB	041H
	DB	031H
	DB	00H
	DB	04H
	DB	00H
	DB	00H
	DB	01H
	DB	00H
	DB	01H
	DB	00H
	DB	07H
	DB	0d1H
	DB	0faH
	DB	057H
	DB	0c4H
	DB	0aeH
	DB	0d9H
	DB	0f0H
	DB	0a3H
	DB	02eH
	DB	084H
	DB	0aaH
	DB	0fH
	DB	0aeH
	DB	0fdH
	DB	0dH
	DB	0e9H
	DB	0e8H
	DB	0fdH
	DB	06aH
	DB	0ecH
	DB	08fH
	DB	087H
	DB	0fbH
	DB	03H
	DB	076H
	DB	06cH
	DB	083H
	DB	04cH
	DB	099H
	DB	092H
	DB	01eH
	DB	0b2H
	DB	03bH
	DB	0e7H
	DB	09aH
	DB	0d9H
	DB	0d5H
	DB	0dcH
	DB	0c1H
	DB	0ddH
	DB	09aH
	DB	0d2H
	DB	036H
	DB	013H
	DB	021H
	DB	02H
	DB	090H
	DB	0bH
	DB	072H
	DB	03cH
	DB	0f9H
	DB	080H
	DB	095H
	DB	07fH
	DB	0c4H
	DB	0e1H
	DB	077H
	DB	010H
	DB	08fH
	DB	0c6H
	DB	07H
	DB	077H
	DB	04fH
	DB	029H
	DB	0e8H
	DB	032H
	DB	0eH
	DB	092H
	DB	0eaH
	DB	05H
	DB	0ecH
	DB	0e4H
	DB	0e8H
	DB	021H
	DB	0c0H
	DB	0a5H
	DB	0efH
	DB	0e8H
	DB	0f1H
	DB	064H
	DB	05cH
	DB	04cH
	DB	0cH
	DB	093H
	DB	0c1H
	DB	0abH
	DB	099H
	DB	028H
	DB	05dH
	DB	062H
	DB	02cH
	DB	0aaH
	DB	065H
	DB	02cH
	DB	01dH
	DB	0faH
	DB	0d6H
	DB	03dH
	DB	074H
	DB	05dH
	DB	06fH
	DB	02dH
	DB	0e5H
	DB	0f1H
	DB	07eH
	DB	05eH
	DB	0afH
	DB	0fH
	DB	0c4H
	DB	096H
	DB	03dH
	DB	026H
	DB	01cH
	DB	08aH
	DB	012H
	DB	043H
	DB	065H
	DB	018H
	DB	020H
	DB	06dH
	DB	0c0H
	DB	093H
	DB	034H
	DB	04dH
	DB	05aH
	DB	0d2H
	DB	093H
_wpfassemblieskey DB 00H
	DB	024H
	DB	00H
	DB	00H
	DB	04H
	DB	080H
	DB	00H
	DB	00H
	DB	094H
	DB	00H
	DB	00H
	DB	00H
	DB	06H
	DB	02H
	DB	00H
	DB	00H
	DB	00H
	DB	024H
	DB	00H
	DB	00H
	DB	052H
	DB	053H
	DB	041H
	DB	031H
	DB	00H
	DB	04H
	DB	00H
	DB	00H
	DB	01H
	DB	00H
	DB	01H
	DB	00H
	DB	0b5H
	DB	0fcH
	DB	090H
	DB	0e7H
	DB	02H
	DB	07fH
	DB	067H
	DB	087H
	DB	01eH
	DB	077H
	DB	03aH
	DB	08fH
	DB	0deH
	DB	089H
	DB	038H
	DB	0c8H
	DB	01dH
	DB	0d4H
	DB	02H
	DB	0baH
	DB	065H
	DB	0b9H
	DB	020H
	DB	01dH
	DB	060H
	DB	059H
	DB	03eH
	DB	096H
	DB	0c4H
	DB	092H
	DB	065H
	DB	01eH
	DB	088H
	DB	09cH
	DB	0c1H
	DB	03fH
	DB	014H
	DB	015H
	DB	0ebH
	DB	0b5H
	DB	03fH
	DB	0acH
	DB	011H
	DB	031H
	DB	0aeH
	DB	0bH
	DB	0d3H
	DB	033H
	DB	0c5H
	DB	0eeH
	DB	060H
	DB	021H
	DB	067H
	DB	02dH
	DB	097H
	DB	018H
	DB	0eaH
	DB	031H
	DB	0a8H
	DB	0aeH
	DB	0bdH
	DB	0dH
	DB	0a0H
	DB	07H
	DB	02fH
	DB	025H
	DB	0d8H
	DB	07dH
	DB	0baH
	DB	06fH
	DB	0c9H
	DB	0fH
	DB	0fdH
	DB	059H
	DB	08eH
	DB	0d4H
	DB	0daH
	DB	035H
	DB	0e4H
	DB	04cH
	DB	039H
	DB	08cH
	DB	045H
	DB	043H
	DB	07H
	DB	0e8H
	DB	0e3H
	DB	03bH
	DB	084H
	DB	026H
	DB	014H
	DB	03dH
	DB	0aeH
	DB	0c9H
	DB	0f5H
	DB	096H
	DB	083H
	DB	06fH
	DB	097H
	DB	0c8H
	DB	0f7H
	DB	047H
	DB	050H
	DB	0e5H
	DB	097H
	DB	05cH
	DB	064H
	DB	0e2H
	DB	018H
	DB	09fH
	DB	045H
	DB	0deH
	DB	0f4H
	DB	06bH
	DB	02aH
	DB	02bH
	DB	012H
	DB	047H
	DB	0adH
	DB	0c3H
	DB	065H
	DB	02bH
	DB	0f5H
	DB	0c3H
	DB	08H
	DB	05H
	DB	05dH
	DB	0a9H
__bad_alloc_Message DD FLAT:??_C@_0P@GHFPNOJB@bad?5allocation?$AA@
; Function compile flags: /Ogtpy
; File c:\program files (x86)\microsoft visual studio 9.0\vc\include\xutility
;	COMDAT ??$_Fill_n@PAPAV?$basic_string@_WU?$char_traits@_W@std@@V?$allocator@_W@2@@std@@IPAV12@@std@@YAXPAPAV?$basic_string@_WU?$char_traits@_W@std@@V?$allocator@_W@2@@0@IABQAV10@U_Range_checked_iterator_tag@0@@Z
_TEXT	SEGMENT
__First$ = 8						; size = 4
___formal$ = 12						; size = 1
??$_Fill_n@PAPAV?$basic_string@_WU?$char_traits@_W@std@@V?$allocator@_W@2@@std@@IPAV12@@std@@YAXPAPAV?$basic_string@_WU?$char_traits@_W@std@@V?$allocator@_W@2@@0@IABQAV10@U_Range_checked_iterator_tag@0@@Z PROC ; std::_Fill_n<std::basic_string<wchar_t,std::char_traits<wchar_t>,std::allocator<wchar_t> > * *,unsigned int,std::basic_string<wchar_t,std::char_traits<wchar_t>,std::allocator<wchar_t> > *>, COMDAT
; __Count$ = eax
; __Val$ = edx

; 3170 : 	{	// copy _Val _Count times through [_First, ...)

	mov	ecx, DWORD PTR __First$[esp-4]

; 3171 : 	for (; 0 < _Count; --_Count, ++_First)

	test	eax, eax
	jbe	SHORT $LN1@Fill_n
	push	esi
	npad	7
$LL3@Fill_n:

; 3172 : 		*_First = _Val;

	mov	esi, DWORD PTR [edx]
	mov	DWORD PTR [ecx], esi
	dec	eax
	add	ecx, 4
	test	eax, eax
	ja	SHORT $LL3@Fill_n
	pop	esi
$LN1@Fill_n:

; 3173 : 	}

	ret	0
??$_Fill_n@PAPAV?$basic_string@_WU?$char_traits@_W@std@@V?$allocator@_W@2@@std@@IPAV12@@std@@YAXPAPAV?$basic_string@_WU?$char_traits@_W@std@@V?$allocator@_W@2@@0@IABQAV10@U_Range_checked_iterator_tag@0@@Z ENDP ; std::_Fill_n<std::basic_string<wchar_t,std::char_traits<wchar_t>,std::allocator<wchar_t> > * *,unsigned int,std::basic_string<wchar_t,std::char_traits<wchar_t>,std::allocator<wchar_t> > *>
; Function compile flags: /Ogtpy
_TEXT	ENDS
;	COMDAT ??$_Fill_n@PAPA_WIPA_W@std@@YAXPAPA_WIABQA_WU_Range_checked_iterator_tag@0@@Z
_TEXT	SEGMENT
__First$ = 8						; size = 4
___formal$ = 12						; size = 1
??$_Fill_n@PAPA_WIPA_W@std@@YAXPAPA_WIABQA_WU_Range_checked_iterator_tag@0@@Z PROC ; std::_Fill_n<wchar_t * *,unsigned int,wchar_t *>, COMDAT
; __Count$ = eax
; __Val$ = edx

; 3170 : 	{	// copy _Val _Count times through [_First, ...)

	mov	ecx, DWORD PTR __First$[esp-4]

; 3171 : 	for (; 0 < _Count; --_Count, ++_First)

	test	eax, eax
	jbe	SHORT $LN1@Fill_n@2
	push	esi
	npad	7
$LL3@Fill_n@2:

; 3172 : 		*_First = _Val;

	mov	esi, DWORD PTR [edx]
	mov	DWORD PTR [ecx], esi
	dec	eax
	add	ecx, 4
	test	eax, eax
	ja	SHORT $LL3@Fill_n@2
	pop	esi
$LN1@Fill_n@2:

; 3173 : 	}

	ret	0
??$_Fill_n@PAPA_WIPA_W@std@@YAXPAPA_WIABQA_WU_Range_checked_iterator_tag@0@@Z ENDP ; std::_Fill_n<wchar_t * *,unsigned int,wchar_t *>
; Function compile flags: /Ogtpy
_TEXT	ENDS
;	COMDAT ??$_Iter_cat@PAPAV?$basic_string@_WU?$char_traits@_W@std@@V?$allocator@_W@2@@std@@@std@@YA?AUrandom_access_iterator_tag@0@ABQAPAV?$basic_string@_WU?$char_traits@_W@std@@V?$allocator@_W@2@@0@@Z
_TEXT	SEGMENT
??$_Iter_cat@PAPAV?$basic_string@_WU?$char_traits@_W@std@@V?$allocator@_W@2@@std@@@std@@YA?AUrandom_access_iterator_tag@0@ABQAPAV?$basic_string@_WU?$char_traits@_W@std@@V?$allocator@_W@2@@0@@Z PROC ; std::_Iter_cat<std::basic_string<wchar_t,std::char_traits<wchar_t>,std::allocator<wchar_t> > * *>, COMDAT
; ___$ReturnUdt$ = eax

; 953  : 	typename iterator_traits<_Iter>::iterator_category _Cat;
; 954  : 	return (_Cat);
; 955  : 	}

	ret	0
??$_Iter_cat@PAPAV?$basic_string@_WU?$char_traits@_W@std@@V?$allocator@_W@2@@std@@@std@@YA?AUrandom_access_iterator_tag@0@ABQAPAV?$basic_string@_WU?$char_traits@_W@std@@V?$allocator@_W@2@@0@@Z ENDP ; std::_Iter_cat<std::basic_string<wchar_t,std::char_traits<wchar_t>,std::allocator<wchar_t> > * *>
; Function compile flags: /Ogtpy
_TEXT	ENDS
;	COMDAT ??$_Iter_cat@PAPA_W@std@@YA?AUrandom_access_iterator_tag@0@ABQAPA_W@Z
_TEXT	SEGMENT
??$_Iter_cat@PAPA_W@std@@YA?AUrandom_access_iterator_tag@0@ABQAPA_W@Z PROC ; std::_Iter_cat<wchar_t * *>, COMDAT
; ___$ReturnUdt$ = eax

; 953  : 	typename iterator_traits<_Iter>::iterator_category _Cat;
; 954  : 	return (_Cat);
; 955  : 	}

	ret	0
??$_Iter_cat@PAPA_W@std@@YA?AUrandom_access_iterator_tag@0@ABQAPA_W@Z ENDP ; std::_Iter_cat<wchar_t * *>
; Function compile flags: /Ogtpy
_TEXT	ENDS
;	COMDAT ??$_Checked_base@PAPAV?$basic_string@_WU?$char_traits@_W@std@@V?$allocator@_W@2@@std@@@std@@YAPAPAV?$basic_string@_WU?$char_traits@_W@std@@V?$allocator@_W@2@@0@AAPAPAV10@U_Unchanged_checked_iterator_base_type_tag@0@@Z
_TEXT	SEGMENT
___formal$ = 8						; size = 1
??$_Checked_base@PAPAV?$basic_string@_WU?$char_traits@_W@std@@V?$allocator@_W@2@@std@@@std@@YAPAPAV?$basic_string@_WU?$char_traits@_W@std@@V?$allocator@_W@2@@0@AAPAPAV10@U_Unchanged_checked_iterator_base_type_tag@0@@Z PROC ; std::_Checked_base<std::basic_string<wchar_t,std::char_traits<wchar_t>,std::allocator<wchar_t> > * *>, COMDAT
; __It$ = eax

; 1147 : 		return _It;

	mov	eax, DWORD PTR [eax]

; 1148 : 	}

	ret	0
??$_Checked_base@PAPAV?$basic_string@_WU?$char_traits@_W@std@@V?$allocator@_W@2@@std@@@std@@YAPAPAV?$basic_string@_WU?$char_traits@_W@std@@V?$allocator@_W@2@@0@AAPAPAV10@U_Unchanged_checked_iterator_base_type_tag@0@@Z ENDP ; std::_Checked_base<std::basic_string<wchar_t,std::char_traits<wchar_t>,std::allocator<wchar_t> > * *>
; Function compile flags: /Ogtpy
_TEXT	ENDS
;	COMDAT ??$_Checked_base@PAPA_W@std@@YAPAPA_WAAPAPA_WU_Unchanged_checked_iterator_base_type_tag@0@@Z
_TEXT	SEGMENT
___formal$ = 8						; size = 1
??$_Checked_base@PAPA_W@std@@YAPAPA_WAAPAPA_WU_Unchanged_checked_iterator_base_type_tag@0@@Z PROC ; std::_Checked_base<wchar_t * *>, COMDAT
; __It$ = eax

; 1147 : 		return _It;

	mov	eax, DWORD PTR [eax]

; 1148 : 	}

	ret	0
??$_Checked_base@PAPA_W@std@@YAPAPA_WAAPAPA_WU_Unchanged_checked_iterator_base_type_tag@0@@Z ENDP ; std::_Checked_base<wchar_t * *>
; Function compile flags: /Ogtpy
; File c:\program files (x86)\microsoft visual studio 9.0\vc\include\xmemory
_TEXT	ENDS
;	COMDAT ??$_Destroy_range@V?$allocator@PAV?$basic_string@_WU?$char_traits@_W@std@@V?$allocator@_W@2@@std@@@std@@@std@@YAXPAPAV?$basic_string@_WU?$char_traits@_W@std@@V?$allocator@_W@2@@0@0AAV?$allocator@PAV?$basic_string@_WU?$char_traits@_W@std@@V?$allocator@_W@2@@std@@@0@U_Scalar_ptr_iterator_tag@0@@Z
_TEXT	SEGMENT
___formal$ = 8						; size = 1
??$_Destroy_range@V?$allocator@PAV?$basic_string@_WU?$char_traits@_W@std@@V?$allocator@_W@2@@std@@@std@@@std@@YAXPAPAV?$basic_string@_WU?$char_traits@_W@std@@V?$allocator@_W@2@@0@0AAV?$allocator@PAV?$basic_string@_WU?$char_traits@_W@std@@V?$allocator@_W@2@@std@@@0@U_Scalar_ptr_iterator_tag@0@@Z PROC ; std::_Destroy_range<std::allocator<std::basic_string<wchar_t,std::char_traits<wchar_t>,std::allocator<wchar_t> > *> >, COMDAT

; 242  : 	}

	ret	0
??$_Destroy_range@V?$allocator@PAV?$basic_string@_WU?$char_traits@_W@std@@V?$allocator@_W@2@@std@@@std@@@std@@YAXPAPAV?$basic_string@_WU?$char_traits@_W@std@@V?$allocator@_W@2@@0@0AAV?$allocator@PAV?$basic_string@_WU?$char_traits@_W@std@@V?$allocator@_W@2@@std@@@0@U_Scalar_ptr_iterator_tag@0@@Z ENDP ; std::_Destroy_range<std::allocator<std::basic_string<wchar_t,std::char_traits<wchar_t>,std::allocator<wchar_t> > *> >
; Function compile flags: /Ogtpy
; File c:\program files (x86)\microsoft visual studio 9.0\vc\include\memory
_TEXT	ENDS
;	COMDAT ??$_Uninit_copy@PAPAV?$basic_string@_WU?$char_traits@_W@std@@V?$allocator@_W@2@@std@@PAPAV12@V?$allocator@PAV?$basic_string@_WU?$char_traits@_W@std@@V?$allocator@_W@2@@std@@@2@@std@@YAPAPAV?$basic_string@_WU?$char_traits@_W@std@@V?$allocator@_W@2@@0@PAPAV10@00AAV?$allocator@PAV?$basic_string@_WU?$char_traits@_W@std@@V?$allocator@_W@2@@std@@@0@U_Scalar_ptr_iterator_tag@0@U_Range_checked_iterator_tag@0@@Z
_TEXT	SEGMENT
__Dest$ = 8						; size = 4
__Result$ = 12						; size = 4
??$_Uninit_copy@PAPAV?$basic_string@_WU?$char_traits@_W@std@@V?$allocator@_W@2@@std@@PAPAV12@V?$allocator@PAV?$basic_string@_WU?$char_traits@_W@std@@V?$allocator@_W@2@@std@@@2@@std@@YAPAPAV?$basic_string@_WU?$char_traits@_W@std@@V?$allocator@_W@2@@0@PAPAV10@00AAV?$allocator@PAV?$basic_string@_WU?$char_traits@_W@std@@V?$allocator@_W@2@@std@@@0@U_Scalar_ptr_iterator_tag@0@U_Range_checked_iterator_tag@0@@Z PROC ; std::_Uninit_copy<std::basic_string<wchar_t,std::char_traits<wchar_t>,std::allocator<wchar_t> > * *,std::basic_string<wchar_t,std::char_traits<wchar_t>,std::allocator<wchar_t> > * *,std::allocator<std::basic_string<wchar_t,std::char_traits<wchar_t>,std::allocator<wchar_t> > *> >, COMDAT
; __First$ = ecx
; __Count$ = eax

; 144  : 	_DEBUG_RANGE(_First, _Last);
; 145  : 	_DEBUG_POINTER(_Dest);
; 146  : 	size_t _Count = (size_t)(_Last - _First);
; 147  : 	_FwdIt _Result = _Dest + _Count;
; 148  : 	if (_Count > 0)
; 149  : 		_CRT_SECURE_MEMMOVE(&*_Dest, _Count * sizeof (*_First), &*_First, _Count * sizeof (*_First));	// NB: non-overlapping move

	mov	edx, DWORD PTR __Dest$[esp-4]
	add	eax, eax
	add	eax, eax
	push	eax
	push	ecx
	push	eax
	push	edx
	call	DWORD PTR __imp__memmove_s

; 150  : 	return _Result;

	mov	eax, DWORD PTR __Result$[esp+12]
	add	esp, 16					; 00000010H

; 151  : 	}

	ret	0
??$_Uninit_copy@PAPAV?$basic_string@_WU?$char_traits@_W@std@@V?$allocator@_W@2@@std@@PAPAV12@V?$allocator@PAV?$basic_string@_WU?$char_traits@_W@std@@V?$allocator@_W@2@@std@@@2@@std@@YAPAPAV?$basic_string@_WU?$char_traits@_W@std@@V?$allocator@_W@2@@0@PAPAV10@00AAV?$allocator@PAV?$basic_string@_WU?$char_traits@_W@std@@V?$allocator@_W@2@@std@@@0@U_Scalar_ptr_iterator_tag@0@U_Range_checked_iterator_tag@0@@Z ENDP ; std::_Uninit_copy<std::basic_string<wchar_t,std::char_traits<wchar_t>,std::allocator<wchar_t> > * *,std::basic_string<wchar_t,std::char_traits<wchar_t>,std::allocator<wchar_t> > * *,std::allocator<std::basic_string<wchar_t,std::char_traits<wchar_t>,std::allocator<wchar_t> > *> >
; Function compile flags: /Ogtpy
; File c:\program files (x86)\microsoft visual studio 9.0\vc\include\xutility
_TEXT	ENDS
;	COMDAT ??$_Ptr_cat@PAPAV?$basic_string@_WU?$char_traits@_W@std@@V?$allocator@_W@2@@std@@PAPAV12@@std@@YA?AU_Scalar_ptr_iterator_tag@0@AAPAPAV?$basic_string@_WU?$char_traits@_W@std@@V?$allocator@_W@2@@0@0@Z
_TEXT	SEGMENT
__Cat$ = -1						; size = 1
??$_Ptr_cat@PAPAV?$basic_string@_WU?$char_traits@_W@std@@V?$allocator@_W@2@@std@@PAPAV12@@std@@YA?AU_Scalar_ptr_iterator_tag@0@AAPAPAV?$basic_string@_WU?$char_traits@_W@std@@V?$allocator@_W@2@@0@0@Z PROC ; std::_Ptr_cat<std::basic_string<wchar_t,std::char_traits<wchar_t>,std::allocator<wchar_t> > * *,std::basic_string<wchar_t,std::char_traits<wchar_t>,std::allocator<wchar_t> > * *>, COMDAT

; 1483 : 	{

	push	ecx

; 1484 : 	typename _Ptr_cat_helper<_T1, _T2>::_Ptr_cat _Cat;
; 1485 : 	return (_Cat);

	mov	al, BYTE PTR __Cat$[esp+4]

; 1486 : 	}

	pop	ecx
	ret	0
??$_Ptr_cat@PAPAV?$basic_string@_WU?$char_traits@_W@std@@V?$allocator@_W@2@@std@@PAPAV12@@std@@YA?AU_Scalar_ptr_iterator_tag@0@AAPAPAV?$basic_string@_WU?$char_traits@_W@std@@V?$allocator@_W@2@@0@0@Z ENDP ; std::_Ptr_cat<std::basic_string<wchar_t,std::char_traits<wchar_t>,std::allocator<wchar_t> > * *,std::basic_string<wchar_t,std::char_traits<wchar_t>,std::allocator<wchar_t> > * *>
; Function compile flags: /Ogtpy
_TEXT	ENDS
;	COMDAT ??$_Checked_base@PAPAV?$basic_string@_WU?$char_traits@_W@std@@V?$allocator@_W@2@@std@@@std@@YAPAPAV?$basic_string@_WU?$char_traits@_W@std@@V?$allocator@_W@2@@0@AAPAPAV10@@Z
_TEXT	SEGMENT
??$_Checked_base@PAPAV?$basic_string@_WU?$char_traits@_W@std@@V?$allocator@_W@2@@std@@@std@@YAPAPAV?$basic_string@_WU?$char_traits@_W@std@@V?$allocator@_W@2@@0@AAPAPAV10@@Z PROC ; std::_Checked_base<std::basic_string<wchar_t,std::char_traits<wchar_t>,std::allocator<wchar_t> > * *>, COMDAT
; __It$ = eax

; 1164 : 		typename _Checked_iterator_base_helper<_Iter>::_Checked_iterator_base_type_tag _Base_tag;
; 1165 : 		return _Checked_base(_It, _Base_tag);

	mov	eax, DWORD PTR [eax]

; 1166 : 	}

	ret	0
??$_Checked_base@PAPAV?$basic_string@_WU?$char_traits@_W@std@@V?$allocator@_W@2@@std@@@std@@YAPAPAV?$basic_string@_WU?$char_traits@_W@std@@V?$allocator@_W@2@@0@AAPAPAV10@@Z ENDP ; std::_Checked_base<std::basic_string<wchar_t,std::char_traits<wchar_t>,std::allocator<wchar_t> > * *>
; Function compile flags: /Ogtpy
; File c:\program files (x86)\microsoft visual studio 9.0\vc\include\xmemory
_TEXT	ENDS
;	COMDAT ??$_Destroy_range@V?$allocator@PA_W@std@@@std@@YAXPAPA_W0AAV?$allocator@PA_W@0@U_Scalar_ptr_iterator_tag@0@@Z
_TEXT	SEGMENT
___formal$ = 8						; size = 1
??$_Destroy_range@V?$allocator@PA_W@std@@@std@@YAXPAPA_W0AAV?$allocator@PA_W@0@U_Scalar_ptr_iterator_tag@0@@Z PROC ; std::_Destroy_range<std::allocator<wchar_t *> >, COMDAT

; 242  : 	}

	ret	0
??$_Destroy_range@V?$allocator@PA_W@std@@@std@@YAXPAPA_W0AAV?$allocator@PA_W@0@U_Scalar_ptr_iterator_tag@0@@Z ENDP ; std::_Destroy_range<std::allocator<wchar_t *> >
; Function compile flags: /Ogtpy
; File c:\program files (x86)\microsoft visual studio 9.0\vc\include\memory
_TEXT	ENDS
;	COMDAT ??$_Uninit_copy@PAPA_WPAPA_WV?$allocator@PA_W@std@@@std@@YAPAPA_WPAPA_W00AAV?$allocator@PA_W@0@U_Scalar_ptr_iterator_tag@0@U_Range_checked_iterator_tag@0@@Z
_TEXT	SEGMENT
__Dest$ = 8						; size = 4
__Result$ = 12						; size = 4
??$_Uninit_copy@PAPA_WPAPA_WV?$allocator@PA_W@std@@@std@@YAPAPA_WPAPA_W00AAV?$allocator@PA_W@0@U_Scalar_ptr_iterator_tag@0@U_Range_checked_iterator_tag@0@@Z PROC ; std::_Uninit_copy<wchar_t * *,wchar_t * *,std::allocator<wchar_t *> >, COMDAT
; __First$ = ecx
; __Count$ = eax

; 144  : 	_DEBUG_RANGE(_First, _Last);
; 145  : 	_DEBUG_POINTER(_Dest);
; 146  : 	size_t _Count = (size_t)(_Last - _First);
; 147  : 	_FwdIt _Result = _Dest + _Count;
; 148  : 	if (_Count > 0)
; 149  : 		_CRT_SECURE_MEMMOVE(&*_Dest, _Count * sizeof (*_First), &*_First, _Count * sizeof (*_First));	// NB: non-overlapping move

	mov	edx, DWORD PTR __Dest$[esp-4]
	add	eax, eax
	add	eax, eax
	push	eax
	push	ecx
	push	eax
	push	edx
	call	DWORD PTR __imp__memmove_s

; 150  : 	return _Result;

	mov	eax, DWORD PTR __Result$[esp+12]
	add	esp, 16					; 00000010H

; 151  : 	}

	ret	0
??$_Uninit_copy@PAPA_WPAPA_WV?$allocator@PA_W@std@@@std@@YAPAPA_WPAPA_W00AAV?$allocator@PA_W@0@U_Scalar_ptr_iterator_tag@0@U_Range_checked_iterator_tag@0@@Z ENDP ; std::_Uninit_copy<wchar_t * *,wchar_t * *,std::allocator<wchar_t *> >
; Function compile flags: /Ogtpy
; File c:\program files (x86)\microsoft visual studio 9.0\vc\include\xutility
_TEXT	ENDS
;	COMDAT ??$_Ptr_cat@PAPA_WPAPA_W@std@@YA?AU_Scalar_ptr_iterator_tag@0@AAPAPA_W0@Z
_TEXT	SEGMENT
__Cat$ = -1						; size = 1
??$_Ptr_cat@PAPA_WPAPA_W@std@@YA?AU_Scalar_ptr_iterator_tag@0@AAPAPA_W0@Z PROC ; std::_Ptr_cat<wchar_t * *,wchar_t * *>, COMDAT

; 1483 : 	{

	push	ecx

; 1484 : 	typename _Ptr_cat_helper<_T1, _T2>::_Ptr_cat _Cat;
; 1485 : 	return (_Cat);

	mov	al, BYTE PTR __Cat$[esp+4]

; 1486 : 	}

	pop	ecx
	ret	0
??$_Ptr_cat@PAPA_WPAPA_W@std@@YA?AU_Scalar_ptr_iterator_tag@0@AAPAPA_W0@Z ENDP ; std::_Ptr_cat<wchar_t * *,wchar_t * *>
; Function compile flags: /Ogtpy
_TEXT	ENDS
;	COMDAT ??$_Checked_base@PAPA_W@std@@YAPAPA_WAAPAPA_W@Z
_TEXT	SEGMENT
??$_Checked_base@PAPA_W@std@@YAPAPA_WAAPAPA_W@Z PROC	; std::_Checked_base<wchar_t * *>, COMDAT
; __It$ = eax

; 1164 : 		typename _Checked_iterator_base_helper<_Iter>::_Checked_iterator_base_type_tag _Base_tag;
; 1165 : 		return _Checked_base(_It, _Base_tag);

	mov	eax, DWORD PTR [eax]

; 1166 : 	}

	ret	0
??$_Checked_base@PAPA_W@std@@YAPAPA_WAAPAPA_W@Z ENDP	; std::_Checked_base<wchar_t * *>
; Function compile flags: /Ogtpy
_TEXT	ENDS
;	COMDAT ??_G?$basic_string@_WU?$char_traits@_W@std@@V?$allocator@_W@2@@std@@QAEPAXI@Z
_TEXT	SEGMENT
??_G?$basic_string@_WU?$char_traits@_W@std@@V?$allocator@_W@2@@std@@QAEPAXI@Z PROC ; std::basic_string<wchar_t,std::char_traits<wchar_t>,std::allocator<wchar_t> >::`scalar deleting destructor', COMDAT
; _this$ = esi
	mov	ecx, esi
	call	DWORD PTR __imp_??1?$basic_string@_WU?$char_traits@_W@std@@V?$allocator@_W@2@@std@@QAE@XZ
	mov	eax, esi
	ret	0
??_G?$basic_string@_WU?$char_traits@_W@std@@V?$allocator@_W@2@@std@@QAEPAXI@Z ENDP ; std::basic_string<wchar_t,std::char_traits<wchar_t>,std::allocator<wchar_t> >::`scalar deleting destructor'
; Function compile flags: /Ogtpy
; File c:\program files (x86)\microsoft visual studio 9.0\vc\include\xmemory
_TEXT	ENDS
;	COMDAT ??$?0V?$basic_string@_WU?$char_traits@_W@std@@V?$allocator@_W@2@@std@@@?$allocator@V_Aux_cont@std@@@std@@QAE@ABV?$allocator@V?$basic_string@_WU?$char_traits@_W@std@@V?$allocator@_W@2@@std@@@1@@Z
_TEXT	SEGMENT
??$?0V?$basic_string@_WU?$char_traits@_W@std@@V?$allocator@_W@2@@std@@@?$allocator@V_Aux_cont@std@@@std@@QAE@ABV?$allocator@V?$basic_string@_WU?$char_traits@_W@std@@V?$allocator@_W@2@@std@@@1@@Z PROC ; std::allocator<std::_Aux_cont>::allocator<std::_Aux_cont><std::basic_string<wchar_t,std::char_traits<wchar_t>,std::allocator<wchar_t> > >, COMDAT
; _this$ = eax

; 129  : 		{	// construct from a related allocator (do nothing)
; 130  : 		}

	ret	0
??$?0V?$basic_string@_WU?$char_traits@_W@std@@V?$allocator@_W@2@@std@@@?$allocator@V_Aux_cont@std@@@std@@QAE@ABV?$allocator@V?$basic_string@_WU?$char_traits@_W@std@@V?$allocator@_W@2@@std@@@1@@Z ENDP ; std::allocator<std::_Aux_cont>::allocator<std::_Aux_cont><std::basic_string<wchar_t,std::char_traits<wchar_t>,std::allocator<wchar_t> > >
; Function compile flags: /Ogtpy
_TEXT	ENDS
;	COMDAT ??$?0_W@?$allocator@V_Aux_cont@std@@@std@@QAE@ABV?$allocator@_W@1@@Z
_TEXT	SEGMENT
??$?0_W@?$allocator@V_Aux_cont@std@@@std@@QAE@ABV?$allocator@_W@1@@Z PROC ; std::allocator<std::_Aux_cont>::allocator<std::_Aux_cont><wchar_t>, COMDAT
; _this$ = eax

; 129  : 		{	// construct from a related allocator (do nothing)
; 130  : 		}

	ret	0
??$?0_W@?$allocator@V_Aux_cont@std@@@std@@QAE@ABV?$allocator@_W@1@@Z ENDP ; std::allocator<std::_Aux_cont>::allocator<std::_Aux_cont><wchar_t>
; Function compile flags: /Ogtpy
_TEXT	ENDS
;	COMDAT ??$?0V?$basic_string@_WU?$char_traits@_W@std@@V?$allocator@_W@2@@std@@@?$allocator@PAV?$basic_string@_WU?$char_traits@_W@std@@V?$allocator@_W@2@@std@@@std@@QAE@ABV?$allocator@V?$basic_string@_WU?$char_traits@_W@std@@V?$allocator@_W@2@@std@@@1@@Z
_TEXT	SEGMENT
??$?0V?$basic_string@_WU?$char_traits@_W@std@@V?$allocator@_W@2@@std@@@?$allocator@PAV?$basic_string@_WU?$char_traits@_W@std@@V?$allocator@_W@2@@std@@@std@@QAE@ABV?$allocator@V?$basic_string@_WU?$char_traits@_W@std@@V?$allocator@_W@2@@std@@@1@@Z PROC ; std::allocator<std::basic_string<wchar_t,std::char_traits<wchar_t>,std::allocator<wchar_t> > *>::allocator<std::basic_string<wchar_t,std::char_traits<wchar_t>,std::allocator<wchar_t> > *><std::basic_string<wchar_t,std::char_traits<wchar_t>,std::allocator<wchar_t> > >, COMDAT
; _this$ = eax

; 129  : 		{	// construct from a related allocator (do nothing)
; 130  : 		}

	ret	0
??$?0V?$basic_string@_WU?$char_traits@_W@std@@V?$allocator@_W@2@@std@@@?$allocator@PAV?$basic_string@_WU?$char_traits@_W@std@@V?$allocator@_W@2@@std@@@std@@QAE@ABV?$allocator@V?$basic_string@_WU?$char_traits@_W@std@@V?$allocator@_W@2@@std@@@1@@Z ENDP ; std::allocator<std::basic_string<wchar_t,std::char_traits<wchar_t>,std::allocator<wchar_t> > *>::allocator<std::basic_string<wchar_t,std::char_traits<wchar_t>,std::allocator<wchar_t> > *><std::basic_string<wchar_t,std::char_traits<wchar_t>,std::allocator<wchar_t> > >
; Function compile flags: /Ogtpy
_TEXT	ENDS
;	COMDAT ??$?0_W@?$allocator@PA_W@std@@QAE@ABV?$allocator@_W@1@@Z
_TEXT	SEGMENT
??$?0_W@?$allocator@PA_W@std@@QAE@ABV?$allocator@_W@1@@Z PROC ; std::allocator<wchar_t *>::allocator<wchar_t *><wchar_t>, COMDAT
; _this$ = eax

; 129  : 		{	// construct from a related allocator (do nothing)
; 130  : 		}

	ret	0
??$?0_W@?$allocator@PA_W@std@@QAE@ABV?$allocator@_W@1@@Z ENDP ; std::allocator<wchar_t *>::allocator<wchar_t *><wchar_t>
; Function compile flags: /Ogtpy
_TEXT	ENDS
;	COMDAT ??$_Destroy@PAV?$basic_string@_WU?$char_traits@_W@std@@V?$allocator@_W@2@@std@@@std@@YAXPAPAV?$basic_string@_WU?$char_traits@_W@std@@V?$allocator@_W@2@@0@@Z
_TEXT	SEGMENT
??$_Destroy@PAV?$basic_string@_WU?$char_traits@_W@std@@V?$allocator@_W@2@@std@@@std@@YAXPAPAV?$basic_string@_WU?$char_traits@_W@std@@V?$allocator@_W@2@@0@@Z PROC ; std::_Destroy<std::basic_string<wchar_t,std::char_traits<wchar_t>,std::allocator<wchar_t> > *>, COMDAT

; 59   : 	_DESTRUCTOR(_Ty, _Ptr);
; 60   : 	}

	ret	0
??$_Destroy@PAV?$basic_string@_WU?$char_traits@_W@std@@V?$allocator@_W@2@@std@@@std@@YAXPAPAV?$basic_string@_WU?$char_traits@_W@std@@V?$allocator@_W@2@@0@@Z ENDP ; std::_Destroy<std::basic_string<wchar_t,std::char_traits<wchar_t>,std::allocator<wchar_t> > *>
; Function compile flags: /Ogtpy
_TEXT	ENDS
;	COMDAT ??$_Destroy@V?$basic_string@_WU?$char_traits@_W@std@@V?$allocator@_W@2@@std@@@std@@YAXPAV?$basic_string@_WU?$char_traits@_W@std@@V?$allocator@_W@2@@0@@Z
_TEXT	SEGMENT
??$_Destroy@V?$basic_string@_WU?$char_traits@_W@std@@V?$allocator@_W@2@@std@@@std@@YAXPAV?$basic_string@_WU?$char_traits@_W@std@@V?$allocator@_W@2@@0@@Z PROC ; std::_Destroy<std::basic_string<wchar_t,std::char_traits<wchar_t>,std::allocator<wchar_t> > >, COMDAT
; __Ptr$ = ecx

; 59   : 	_DESTRUCTOR(_Ty, _Ptr);

	jmp	DWORD PTR __imp_??1?$basic_string@_WU?$char_traits@_W@std@@V?$allocator@_W@2@@std@@QAE@XZ
??$_Destroy@V?$basic_string@_WU?$char_traits@_W@std@@V?$allocator@_W@2@@std@@@std@@YAXPAV?$basic_string@_WU?$char_traits@_W@std@@V?$allocator@_W@2@@0@@Z ENDP ; std::_Destroy<std::basic_string<wchar_t,std::char_traits<wchar_t>,std::allocator<wchar_t> > >
; Function compile flags: /Ogtpy
_TEXT	ENDS
;	COMDAT ??$_Destroy_range@V?$allocator@PAV?$basic_string@_WU?$char_traits@_W@std@@V?$allocator@_W@2@@std@@@std@@@std@@YAXPAPAV?$basic_string@_WU?$char_traits@_W@std@@V?$allocator@_W@2@@0@0AAV?$allocator@PAV?$basic_string@_WU?$char_traits@_W@std@@V?$allocator@_W@2@@std@@@0@@Z
_TEXT	SEGMENT
??$_Destroy_range@V?$allocator@PAV?$basic_string@_WU?$char_traits@_W@std@@V?$allocator@_W@2@@std@@@std@@@std@@YAXPAPAV?$basic_string@_WU?$char_traits@_W@std@@V?$allocator@_W@2@@0@0AAV?$allocator@PAV?$basic_string@_WU?$char_traits@_W@std@@V?$allocator@_W@2@@std@@@0@@Z PROC ; std::_Destroy_range<std::allocator<std::basic_string<wchar_t,std::char_traits<wchar_t>,std::allocator<wchar_t> > *> >, COMDAT

; 225  : 	_Destroy_range(_First, _Last, _Al, _Ptr_cat(_First, _Last));
; 226  : 	}

	ret	0
??$_Destroy_range@V?$allocator@PAV?$basic_string@_WU?$char_traits@_W@std@@V?$allocator@_W@2@@std@@@std@@@std@@YAXPAPAV?$basic_string@_WU?$char_traits@_W@std@@V?$allocator@_W@2@@0@0AAV?$allocator@PAV?$basic_string@_WU?$char_traits@_W@std@@V?$allocator@_W@2@@std@@@0@@Z ENDP ; std::_Destroy_range<std::allocator<std::basic_string<wchar_t,std::char_traits<wchar_t>,std::allocator<wchar_t> > *> >
; Function compile flags: /Ogtpy
; File c:\program files (x86)\microsoft visual studio 9.0\vc\include\memory
_TEXT	ENDS
;	COMDAT ??$unchecked_uninitialized_copy@PAPAV?$basic_string@_WU?$char_traits@_W@std@@V?$allocator@_W@2@@std@@PAPAV12@V?$allocator@PAV?$basic_string@_WU?$char_traits@_W@std@@V?$allocator@_W@2@@std@@@2@@stdext@@YAPAPAV?$basic_string@_WU?$char_traits@_W@std@@V?$allocator@_W@2@@std@@PAPAV12@00AAV?$allocator@PAV?$basic_string@_WU?$char_traits@_W@std@@V?$allocator@_W@2@@std@@@2@@Z
_TEXT	SEGMENT
??$unchecked_uninitialized_copy@PAPAV?$basic_string@_WU?$char_traits@_W@std@@V?$allocator@_W@2@@std@@PAPAV12@V?$allocator@PAV?$basic_string@_WU?$char_traits@_W@std@@V?$allocator@_W@2@@std@@@2@@stdext@@YAPAPAV?$basic_string@_WU?$char_traits@_W@std@@V?$allocator@_W@2@@std@@PAPAV12@00AAV?$allocator@PAV?$basic_string@_WU?$char_traits@_W@std@@V?$allocator@_W@2@@std@@@2@@Z PROC ; stdext::unchecked_uninitialized_copy<std::basic_string<wchar_t,std::char_traits<wchar_t>,std::allocator<wchar_t> > * *,std::basic_string<wchar_t,std::char_traits<wchar_t>,std::allocator<wchar_t> > * *,std::allocator<std::basic_string<wchar_t,std::char_traits<wchar_t>,std::allocator<wchar_t> > *> >, COMDAT
; __First$ = edi
; __Last$ = eax
; __Dest$ = edx

; 810  : 		return (_STD _Uninit_copy(_CHECKED_BASE(_First), _CHECKED_BASE(_Last), _Dest, _Al,
; 811  : 			_STD _Ptr_cat(_First, _Dest), _STD _Range_checked_iterator_tag()));

	sub	eax, edi
	sar	eax, 2
	lea	ecx, DWORD PTR [eax*4]
	push	esi
	lea	esi, DWORD PTR [ecx+edx]
	test	eax, eax
	jbe	SHORT $LN16@unchecked_
	push	ecx
	push	edi
	push	ecx
	push	edx
	call	DWORD PTR __imp__memmove_s
	add	esp, 16					; 00000010H
$LN16@unchecked_:
	mov	eax, esi
	pop	esi

; 812  : 	}

	ret	0
??$unchecked_uninitialized_copy@PAPAV?$basic_string@_WU?$char_traits@_W@std@@V?$allocator@_W@2@@std@@PAPAV12@V?$allocator@PAV?$basic_string@_WU?$char_traits@_W@std@@V?$allocator@_W@2@@std@@@2@@stdext@@YAPAPAV?$basic_string@_WU?$char_traits@_W@std@@V?$allocator@_W@2@@std@@PAPAV12@00AAV?$allocator@PAV?$basic_string@_WU?$char_traits@_W@std@@V?$allocator@_W@2@@std@@@2@@Z ENDP ; stdext::unchecked_uninitialized_copy<std::basic_string<wchar_t,std::char_traits<wchar_t>,std::allocator<wchar_t> > * *,std::basic_string<wchar_t,std::char_traits<wchar_t>,std::allocator<wchar_t> > * *,std::allocator<std::basic_string<wchar_t,std::char_traits<wchar_t>,std::allocator<wchar_t> > *> >
; Function compile flags: /Ogtpy
; File c:\program files (x86)\microsoft visual studio 9.0\vc\include\xmemory
_TEXT	ENDS
;	COMDAT ??$_Destroy@PA_W@std@@YAXPAPA_W@Z
_TEXT	SEGMENT
??$_Destroy@PA_W@std@@YAXPAPA_W@Z PROC			; std::_Destroy<wchar_t *>, COMDAT

; 59   : 	_DESTRUCTOR(_Ty, _Ptr);
; 60   : 	}

	ret	0
??$_Destroy@PA_W@std@@YAXPAPA_W@Z ENDP			; std::_Destroy<wchar_t *>
; Function compile flags: /Ogtpy
_TEXT	ENDS
;	COMDAT ??$_Destroy_range@V?$allocator@PA_W@std@@@std@@YAXPAPA_W0AAV?$allocator@PA_W@0@@Z
_TEXT	SEGMENT
??$_Destroy_range@V?$allocator@PA_W@std@@@std@@YAXPAPA_W0AAV?$allocator@PA_W@0@@Z PROC ; std::_Destroy_range<std::allocator<wchar_t *> >, COMDAT

; 225  : 	_Destroy_range(_First, _Last, _Al, _Ptr_cat(_First, _Last));
; 226  : 	}

	ret	0
??$_Destroy_range@V?$allocator@PA_W@std@@@std@@YAXPAPA_W0AAV?$allocator@PA_W@0@@Z ENDP ; std::_Destroy_range<std::allocator<wchar_t *> >
; Function compile flags: /Ogtpy
; File c:\program files (x86)\microsoft visual studio 9.0\vc\include\memory
_TEXT	ENDS
;	COMDAT ??$unchecked_uninitialized_copy@PAPA_WPAPA_WV?$allocator@PA_W@std@@@stdext@@YAPAPA_WPAPA_W00AAV?$allocator@PA_W@std@@@Z
_TEXT	SEGMENT
??$unchecked_uninitialized_copy@PAPA_WPAPA_WV?$allocator@PA_W@std@@@stdext@@YAPAPA_WPAPA_W00AAV?$allocator@PA_W@std@@@Z PROC ; stdext::unchecked_uninitialized_copy<wchar_t * *,wchar_t * *,std::allocator<wchar_t *> >, COMDAT
; __First$ = edi
; __Last$ = eax
; __Dest$ = edx

; 810  : 		return (_STD _Uninit_copy(_CHECKED_BASE(_First), _CHECKED_BASE(_Last), _Dest, _Al,
; 811  : 			_STD _Ptr_cat(_First, _Dest), _STD _Range_checked_iterator_tag()));

	sub	eax, edi
	sar	eax, 2
	lea	ecx, DWORD PTR [eax*4]
	push	esi
	lea	esi, DWORD PTR [ecx+edx]
	test	eax, eax
	jbe	SHORT $LN16@unchecked_@2
	push	ecx
	push	edi
	push	ecx
	push	edx
	call	DWORD PTR __imp__memmove_s
	add	esp, 16					; 00000010H
$LN16@unchecked_@2:
	mov	eax, esi
	pop	esi

; 812  : 	}

	ret	0
??$unchecked_uninitialized_copy@PAPA_WPAPA_WV?$allocator@PA_W@std@@@stdext@@YAPAPA_WPAPA_W00AAV?$allocator@PA_W@std@@@Z ENDP ; stdext::unchecked_uninitialized_copy<wchar_t * *,wchar_t * *,std::allocator<wchar_t *> >
; Function compile flags: /Ogtpy
; File c:\program files (x86)\microsoft visual studio 9.0\vc\include\xmemory
_TEXT	ENDS
;	COMDAT ?max_size@?$allocator@V?$basic_string@_WU?$char_traits@_W@std@@V?$allocator@_W@2@@std@@@std@@QBEIXZ
_TEXT	SEGMENT
?max_size@?$allocator@V?$basic_string@_WU?$char_traits@_W@std@@V?$allocator@_W@2@@std@@@std@@QBEIXZ PROC ; std::allocator<std::basic_string<wchar_t,std::char_traits<wchar_t>,std::allocator<wchar_t> > >::max_size, COMDAT

; 165  : 		_SIZT _Count = (_SIZT)(-1) / sizeof (_Ty);
; 166  : 		return (0 < _Count ? _Count : 1);

	mov	eax, 153391689				; 09249249H

; 167  : 		}

	ret	0
?max_size@?$allocator@V?$basic_string@_WU?$char_traits@_W@std@@V?$allocator@_W@2@@std@@@std@@QBEIXZ ENDP ; std::allocator<std::basic_string<wchar_t,std::char_traits<wchar_t>,std::allocator<wchar_t> > >::max_size
; Function compile flags: /Ogtpy
_TEXT	ENDS
;	COMDAT ??0?$allocator@V?$basic_string@_WU?$char_traits@_W@std@@V?$allocator@_W@2@@std@@@std@@QAE@ABV01@@Z
_TEXT	SEGMENT
??0?$allocator@V?$basic_string@_WU?$char_traits@_W@std@@V?$allocator@_W@2@@std@@@std@@QAE@ABV01@@Z PROC ; std::allocator<std::basic_string<wchar_t,std::char_traits<wchar_t>,std::allocator<wchar_t> > >::allocator<std::basic_string<wchar_t,std::char_traits<wchar_t>,std::allocator<wchar_t> > >, COMDAT
; _this$ = eax

; 124  : 		{	// construct by copying (do nothing)
; 125  : 		}

	ret	0
??0?$allocator@V?$basic_string@_WU?$char_traits@_W@std@@V?$allocator@_W@2@@std@@@std@@QAE@ABV01@@Z ENDP ; std::allocator<std::basic_string<wchar_t,std::char_traits<wchar_t>,std::allocator<wchar_t> > >::allocator<std::basic_string<wchar_t,std::char_traits<wchar_t>,std::allocator<wchar_t> > >
; Function compile flags: /Ogtpy
; File c:\program files (x86)\microsoft visual studio 9.0\vc\include\deque
_TEXT	ENDS
;	COMDAT ?max_size@?$deque@V?$basic_string@_WU?$char_traits@_W@std@@V?$allocator@_W@2@@std@@V?$allocator@V?$basic_string@_WU?$char_traits@_W@std@@V?$allocator@_W@2@@std@@@2@@std@@QBEIXZ
_TEXT	SEGMENT
?max_size@?$deque@V?$basic_string@_WU?$char_traits@_W@std@@V?$allocator@_W@2@@std@@V?$allocator@V?$basic_string@_WU?$char_traits@_W@std@@V?$allocator@_W@2@@std@@@2@@std@@QBEIXZ PROC ; std::deque<std::basic_string<wchar_t,std::char_traits<wchar_t>,std::allocator<wchar_t> >,std::allocator<std::basic_string<wchar_t,std::char_traits<wchar_t>,std::allocator<wchar_t> > > >::max_size, COMDAT

; 729  : 		return (this->_Alval.max_size());

	mov	eax, 153391689				; 09249249H

; 730  : 		}

	ret	0
?max_size@?$deque@V?$basic_string@_WU?$char_traits@_W@std@@V?$allocator@_W@2@@std@@V?$allocator@V?$basic_string@_WU?$char_traits@_W@std@@V?$allocator@_W@2@@std@@@2@@std@@QBEIXZ ENDP ; std::deque<std::basic_string<wchar_t,std::char_traits<wchar_t>,std::allocator<wchar_t> >,std::allocator<std::basic_string<wchar_t,std::char_traits<wchar_t>,std::allocator<wchar_t> > > >::max_size
; Function compile flags: /Ogtpy
_TEXT	ENDS
;	COMDAT ?max_size@?$deque@_WV?$allocator@_W@std@@@std@@QBEIXZ
_TEXT	SEGMENT
?max_size@?$deque@_WV?$allocator@_W@std@@@std@@QBEIXZ PROC ; std::deque<wchar_t,std::allocator<wchar_t> >::max_size, COMDAT

; 729  : 		return (this->_Alval.max_size());

	mov	eax, 2147483647				; 7fffffffH

; 730  : 		}

	ret	0
?max_size@?$deque@_WV?$allocator@_W@std@@@std@@QBEIXZ ENDP ; std::deque<wchar_t,std::allocator<wchar_t> >::max_size
; Function compile flags: /Ogtpy
; File c:\program files (x86)\microsoft visual studio 9.0\vc\include\xmemory
_TEXT	ENDS
;	COMDAT ?destroy@?$allocator@PAV?$basic_string@_WU?$char_traits@_W@std@@V?$allocator@_W@2@@std@@@std@@QAEXPAPAV?$basic_string@_WU?$char_traits@_W@std@@V?$allocator@_W@2@@2@@Z
_TEXT	SEGMENT
?destroy@?$allocator@PAV?$basic_string@_WU?$char_traits@_W@std@@V?$allocator@_W@2@@std@@@std@@QAEXPAPAV?$basic_string@_WU?$char_traits@_W@std@@V?$allocator@_W@2@@2@@Z PROC ; std::allocator<std::basic_string<wchar_t,std::char_traits<wchar_t>,std::allocator<wchar_t> > *>::destroy, COMDAT

; 160  : 		_Destroy(_Ptr);
; 161  : 		}

	ret	0
?destroy@?$allocator@PAV?$basic_string@_WU?$char_traits@_W@std@@V?$allocator@_W@2@@std@@@std@@QAEXPAPAV?$basic_string@_WU?$char_traits@_W@std@@V?$allocator@_W@2@@2@@Z ENDP ; std::allocator<std::basic_string<wchar_t,std::char_traits<wchar_t>,std::allocator<wchar_t> > *>::destroy
; Function compile flags: /Ogtpy
_TEXT	ENDS
;	COMDAT ?deallocate@?$allocator@PAV?$basic_string@_WU?$char_traits@_W@std@@V?$allocator@_W@2@@std@@@std@@QAEXPAPAV?$basic_string@_WU?$char_traits@_W@std@@V?$allocator@_W@2@@2@I@Z
_TEXT	SEGMENT
?deallocate@?$allocator@PAV?$basic_string@_WU?$char_traits@_W@std@@V?$allocator@_W@2@@std@@@std@@QAEXPAPAV?$basic_string@_WU?$char_traits@_W@std@@V?$allocator@_W@2@@2@I@Z PROC ; std::allocator<std::basic_string<wchar_t,std::char_traits<wchar_t>,std::allocator<wchar_t> > *>::deallocate, COMDAT
; __Ptr$ = eax

; 140  : 		::operator delete(_Ptr);

	push	eax
	call	??3@YAXPAX@Z				; operator delete
	pop	ecx

; 141  : 		}

	ret	0
?deallocate@?$allocator@PAV?$basic_string@_WU?$char_traits@_W@std@@V?$allocator@_W@2@@std@@@std@@QAEXPAPAV?$basic_string@_WU?$char_traits@_W@std@@V?$allocator@_W@2@@2@I@Z ENDP ; std::allocator<std::basic_string<wchar_t,std::char_traits<wchar_t>,std::allocator<wchar_t> > *>::deallocate
; Function compile flags: /Ogtpy
_TEXT	ENDS
;	COMDAT ?destroy@?$allocator@V?$basic_string@_WU?$char_traits@_W@std@@V?$allocator@_W@2@@std@@@std@@QAEXPAV?$basic_string@_WU?$char_traits@_W@std@@V?$allocator@_W@2@@2@@Z
_TEXT	SEGMENT
?destroy@?$allocator@V?$basic_string@_WU?$char_traits@_W@std@@V?$allocator@_W@2@@std@@@std@@QAEXPAV?$basic_string@_WU?$char_traits@_W@std@@V?$allocator@_W@2@@2@@Z PROC ; std::allocator<std::basic_string<wchar_t,std::char_traits<wchar_t>,std::allocator<wchar_t> > >::destroy, COMDAT
; __Ptr$ = ecx

; 160  : 		_Destroy(_Ptr);

	jmp	DWORD PTR __imp_??1?$basic_string@_WU?$char_traits@_W@std@@V?$allocator@_W@2@@std@@QAE@XZ
?destroy@?$allocator@V?$basic_string@_WU?$char_traits@_W@std@@V?$allocator@_W@2@@std@@@std@@QAEXPAV?$basic_string@_WU?$char_traits@_W@std@@V?$allocator@_W@2@@2@@Z ENDP ; std::allocator<std::basic_string<wchar_t,std::char_traits<wchar_t>,std::allocator<wchar_t> > >::destroy
; Function compile flags: /Ogtpy
_TEXT	ENDS
;	COMDAT ?deallocate@?$allocator@V?$basic_string@_WU?$char_traits@_W@std@@V?$allocator@_W@2@@std@@@std@@QAEXPAV?$basic_string@_WU?$char_traits@_W@std@@V?$allocator@_W@2@@2@I@Z
_TEXT	SEGMENT
?deallocate@?$allocator@V?$basic_string@_WU?$char_traits@_W@std@@V?$allocator@_W@2@@std@@@std@@QAEXPAV?$basic_string@_WU?$char_traits@_W@std@@V?$allocator@_W@2@@2@I@Z PROC ; std::allocator<std::basic_string<wchar_t,std::char_traits<wchar_t>,std::allocator<wchar_t> > >::deallocate, COMDAT
; __Ptr$ = eax

; 140  : 		::operator delete(_Ptr);

	push	eax
	call	??3@YAXPAX@Z				; operator delete
	pop	ecx

; 141  : 		}

	ret	0
?deallocate@?$allocator@V?$basic_string@_WU?$char_traits@_W@std@@V?$allocator@_W@2@@std@@@std@@QAEXPAV?$basic_string@_WU?$char_traits@_W@std@@V?$allocator@_W@2@@2@I@Z ENDP ; std::allocator<std::basic_string<wchar_t,std::char_traits<wchar_t>,std::allocator<wchar_t> > >::deallocate
; Function compile flags: /Ogtpy
_TEXT	ENDS
;	COMDAT ??0?$allocator@V?$basic_string@_WU?$char_traits@_W@std@@V?$allocator@_W@2@@std@@@std@@QAE@XZ
_TEXT	SEGMENT
??0?$allocator@V?$basic_string@_WU?$char_traits@_W@std@@V?$allocator@_W@2@@std@@@std@@QAE@XZ PROC ; std::allocator<std::basic_string<wchar_t,std::char_traits<wchar_t>,std::allocator<wchar_t> > >::allocator<std::basic_string<wchar_t,std::char_traits<wchar_t>,std::allocator<wchar_t> > >, COMDAT
; _this$ = eax

; 120  : 		{	// construct default allocator (do nothing)
; 121  : 		}

	ret	0
??0?$allocator@V?$basic_string@_WU?$char_traits@_W@std@@V?$allocator@_W@2@@std@@@std@@QAE@XZ ENDP ; std::allocator<std::basic_string<wchar_t,std::char_traits<wchar_t>,std::allocator<wchar_t> > >::allocator<std::basic_string<wchar_t,std::char_traits<wchar_t>,std::allocator<wchar_t> > >
; Function compile flags: /Ogtpy
_TEXT	ENDS
;	COMDAT ?destroy@?$allocator@PA_W@std@@QAEXPAPA_W@Z
_TEXT	SEGMENT
?destroy@?$allocator@PA_W@std@@QAEXPAPA_W@Z PROC	; std::allocator<wchar_t *>::destroy, COMDAT

; 160  : 		_Destroy(_Ptr);
; 161  : 		}

	ret	0
?destroy@?$allocator@PA_W@std@@QAEXPAPA_W@Z ENDP	; std::allocator<wchar_t *>::destroy
; Function compile flags: /Ogtpy
_TEXT	ENDS
;	COMDAT ?deallocate@?$allocator@PA_W@std@@QAEXPAPA_WI@Z
_TEXT	SEGMENT
?deallocate@?$allocator@PA_W@std@@QAEXPAPA_WI@Z PROC	; std::allocator<wchar_t *>::deallocate, COMDAT
; __Ptr$ = eax

; 140  : 		::operator delete(_Ptr);

	push	eax
	call	??3@YAXPAX@Z				; operator delete
	pop	ecx

; 141  : 		}

	ret	0
?deallocate@?$allocator@PA_W@std@@QAEXPAPA_WI@Z ENDP	; std::allocator<wchar_t *>::deallocate
; Function compile flags: /Ogtpy
; File c:\program files (x86)\microsoft visual studio 9.0\vc\include\deque
_TEXT	ENDS
;	COMDAT ?empty@?$deque@V?$basic_string@_WU?$char_traits@_W@std@@V?$allocator@_W@2@@std@@V?$allocator@V?$basic_string@_WU?$char_traits@_W@std@@V?$allocator@_W@2@@std@@@2@@std@@QBE_NXZ
_TEXT	SEGMENT
?empty@?$deque@V?$basic_string@_WU?$char_traits@_W@std@@V?$allocator@_W@2@@std@@V?$allocator@V?$basic_string@_WU?$char_traits@_W@std@@V?$allocator@_W@2@@std@@@2@@std@@QBE_NXZ PROC ; std::deque<std::basic_string<wchar_t,std::char_traits<wchar_t>,std::allocator<wchar_t> >,std::allocator<std::basic_string<wchar_t,std::char_traits<wchar_t>,std::allocator<wchar_t> > > >::empty, COMDAT
; _this$ = ecx

; 734  : 		return (_Mysize == 0);

	xor	eax, eax
	cmp	DWORD PTR [ecx+28], eax
	sete	al

; 735  : 		}

	ret	0
?empty@?$deque@V?$basic_string@_WU?$char_traits@_W@std@@V?$allocator@_W@2@@std@@V?$allocator@V?$basic_string@_WU?$char_traits@_W@std@@V?$allocator@_W@2@@std@@@2@@std@@QBE_NXZ ENDP ; std::deque<std::basic_string<wchar_t,std::char_traits<wchar_t>,std::allocator<wchar_t> >,std::allocator<std::basic_string<wchar_t,std::char_traits<wchar_t>,std::allocator<wchar_t> > > >::empty
; Function compile flags: /Ogtpy
_TEXT	ENDS
;	COMDAT ?empty@?$deque@_WV?$allocator@_W@std@@@std@@QBE_NXZ
_TEXT	SEGMENT
?empty@?$deque@_WV?$allocator@_W@std@@@std@@QBE_NXZ PROC ; std::deque<wchar_t,std::allocator<wchar_t> >::empty, COMDAT
; _this$ = ecx

; 734  : 		return (_Mysize == 0);

	xor	eax, eax
	cmp	DWORD PTR [ecx+28], eax
	sete	al

; 735  : 		}

	ret	0
?empty@?$deque@_WV?$allocator@_W@std@@@std@@QBE_NXZ ENDP ; std::deque<wchar_t,std::allocator<wchar_t> >::empty
; Function compile flags: /Ogtpy
; File c:\program files (x86)\microsoft visual studio 9.0\vc\include\stack
_TEXT	ENDS
;	COMDAT ?empty@?$stack@V?$basic_string@_WU?$char_traits@_W@std@@V?$allocator@_W@2@@std@@V?$deque@V?$basic_string@_WU?$char_traits@_W@std@@V?$allocator@_W@2@@std@@V?$allocator@V?$basic_string@_WU?$char_traits@_W@std@@V?$allocator@_W@2@@std@@@2@@2@@std@@QBE_NXZ
_TEXT	SEGMENT
?empty@?$stack@V?$basic_string@_WU?$char_traits@_W@std@@V?$allocator@_W@2@@std@@V?$deque@V?$basic_string@_WU?$char_traits@_W@std@@V?$allocator@_W@2@@std@@V?$allocator@V?$basic_string@_WU?$char_traits@_W@std@@V?$allocator@_W@2@@std@@@2@@2@@std@@QBE_NXZ PROC ; std::stack<std::basic_string<wchar_t,std::char_traits<wchar_t>,std::allocator<wchar_t> >,std::deque<std::basic_string<wchar_t,std::char_traits<wchar_t>,std::allocator<wchar_t> >,std::allocator<std::basic_string<wchar_t,std::char_traits<wchar_t>,std::allocator<wchar_t> > > > >::empty, COMDAT
; _this$ = ecx

; 38   : 		return (c.empty());

	xor	eax, eax
	cmp	DWORD PTR [ecx+28], eax
	sete	al

; 39   : 		}

	ret	0
?empty@?$stack@V?$basic_string@_WU?$char_traits@_W@std@@V?$allocator@_W@2@@std@@V?$deque@V?$basic_string@_WU?$char_traits@_W@std@@V?$allocator@_W@2@@std@@V?$allocator@V?$basic_string@_WU?$char_traits@_W@std@@V?$allocator@_W@2@@std@@@2@@2@@std@@QBE_NXZ ENDP ; std::stack<std::basic_string<wchar_t,std::char_traits<wchar_t>,std::allocator<wchar_t> >,std::deque<std::basic_string<wchar_t,std::char_traits<wchar_t>,std::allocator<wchar_t> >,std::allocator<std::basic_string<wchar_t,std::char_traits<wchar_t>,std::allocator<wchar_t> > > > >::empty
; Function compile flags: /Ogtpy
_TEXT	ENDS
;	COMDAT ?empty@?$stack@_WV?$deque@_WV?$allocator@_W@std@@@std@@@std@@QBE_NXZ
_TEXT	SEGMENT
?empty@?$stack@_WV?$deque@_WV?$allocator@_W@std@@@std@@@std@@QBE_NXZ PROC ; std::stack<wchar_t,std::deque<wchar_t,std::allocator<wchar_t> > >::empty, COMDAT
; _this$ = ecx

; 38   : 		return (c.empty());

	xor	eax, eax
	cmp	DWORD PTR [ecx+28], eax
	sete	al

; 39   : 		}

	ret	0
?empty@?$stack@_WV?$deque@_WV?$allocator@_W@std@@@std@@@std@@QBE_NXZ ENDP ; std::stack<wchar_t,std::deque<wchar_t,std::allocator<wchar_t> > >::empty
_TEXT	ENDS
PUBLIC	?IsFrameworkAssembly@@YA_NPAUIMetaDataAssemblyImport@@@Z ; IsFrameworkAssembly
; Function compile flags: /Ogtpy
; File e:\program\c#\sharpdevelop5\src\addins\analysis\profiler\hook\profilermetadata.cpp
;	COMDAT ?IsFrameworkAssembly@@YA_NPAUIMetaDataAssemblyImport@@@Z
_TEXT	SEGMENT
_publicKey$ = -2064					; size = 4
_pKLength$ = -2060					; size = 4
_assembly$ = -2056					; size = 4
_assemblyNameLength$99708 = -2052			; size = 4
_assemblyName$99707 = -2048				; size = 2048
?IsFrameworkAssembly@@YA_NPAUIMetaDataAssemblyImport@@@Z PROC ; IsFrameworkAssembly, COMDAT
; _asmMetaData$ = eax

; 595  : {

	sub	esp, 2064				; 00000810H
	push	esi
	push	edi
	mov	esi, eax

; 596  : 	mdAssembly assembly;
; 597  : 	const void *publicKey;
; 598  : 	ULONG pKLength;
; 599  : 	
; 600  : 	HRESULT hr = asmMetaData->GetAssemblyFromScope(&assembly);

	mov	eax, DWORD PTR [esi]
	mov	edx, DWORD PTR [eax+48]
	lea	ecx, DWORD PTR _assembly$[esp+2072]
	push	ecx
	push	esi
	call	edx

; 601  : 	if (SUCCEEDED(hr)) {

	test	eax, eax
	jl	$LN1@IsFramewor

; 602  : 		WCHAR assemblyName[NAME_BUFFER_SIZE];
; 603  : 		ULONG assemblyNameLength;
; 604  : 
; 605  : 		hr = asmMetaData->GetAssemblyProps(assembly, &publicKey, &pKLength, nullptr, assemblyName, NAME_BUFFER_SIZE, &assemblyNameLength, nullptr, nullptr);

	mov	eax, DWORD PTR [esi]
	push	0
	push	0
	lea	ecx, DWORD PTR _assemblyNameLength$99708[esp+2080]
	push	ecx
	push	1024					; 00000400H
	lea	edx, DWORD PTR _assemblyName$99707[esp+2088]
	push	edx
	push	0
	lea	ecx, DWORD PTR _pKLength$[esp+2096]
	push	ecx
	mov	ecx, DWORD PTR _assembly$[esp+2100]
	lea	edx, DWORD PTR _publicKey$[esp+2100]
	push	edx
	mov	edx, DWORD PTR [eax+12]
	push	ecx
	push	esi
	call	edx

; 606  : 		const byte *b = (const byte *)publicKey;
; 607  : 		
; 608  : 		if (SUCCEEDED(hr)) {

	test	eax, eax
	jl	$LN1@IsFramewor

; 609  : 			if (pKLength == sizeof(mscorlibkey) && memcmp(mscorlibkey, b, sizeof(mscorlibkey)) == 0)

	mov	eax, DWORD PTR _pKLength$[esp+2072]
	cmp	eax, 16					; 00000010H
	jne	SHORT $LN3@IsFramewor
	mov	ecx, eax
	mov	eax, DWORD PTR _publicKey$[esp+2072]
	mov	edx, OFFSET _mscorlibkey
	sub	edx, eax
	npad	7
$LL9@IsFramewor:
	mov	esi, DWORD PTR [edx+eax]
	cmp	esi, DWORD PTR [eax]
	jne	SHORT $LN1@IsFramewor
	sub	ecx, 4
	add	eax, 4
	cmp	ecx, 4
	jae	SHORT $LL9@IsFramewor
	pop	edi

; 610  : 				return true;

	mov	al, 1
	pop	esi

; 619  : }

	add	esp, 2064				; 00000810H
	ret	0
$LN3@IsFramewor:

; 611  : 			if (pKLength == sizeof(systemdrawingkey) && memcmp(systemdrawingkey, b, sizeof(systemdrawingkey)) == 0)

	cmp	eax, 160				; 000000a0H
	jne	SHORT $LN1@IsFramewor
	mov	edx, eax
	mov	eax, DWORD PTR _publicKey$[esp+2072]
	mov	esi, OFFSET _systemdrawingkey
	mov	ecx, eax
	sub	esi, eax
$LL13@IsFramewor:
	mov	edi, DWORD PTR [esi+ecx]
	cmp	edi, DWORD PTR [ecx]
	jne	SHORT $LN32@IsFramewor
	sub	edx, 4
	add	ecx, 4
	cmp	edx, 4
	jae	SHORT $LL13@IsFramewor
	pop	edi

; 612  : 				return true;

	mov	al, 1
	pop	esi

; 619  : }

	add	esp, 2064				; 00000810H
	ret	0
$LN32@IsFramewor:

; 613  : 			if (pKLength == sizeof(wpfassemblieskey) && memcmp(wpfassemblieskey, b, sizeof(wpfassemblieskey)) == 0)

	mov	edx, OFFSET _wpfassemblieskey
	mov	ecx, 160				; 000000a0H
	sub	edx, eax
	npad	4
$LL17@IsFramewor:
	mov	esi, DWORD PTR [edx+eax]
	cmp	esi, DWORD PTR [eax]
	jne	SHORT $LN1@IsFramewor
	sub	ecx, 4
	add	eax, 4
	cmp	ecx, 4
	jae	SHORT $LL17@IsFramewor
	pop	edi

; 614  : 				return true;

	mov	al, 1
	pop	esi

; 619  : }

	add	esp, 2064				; 00000810H
	ret	0
$LN1@IsFramewor:
	pop	edi

; 615  : 		}
; 616  : 	}
; 617  : 	
; 618  : 	return false;

	xor	al, al
	pop	esi

; 619  : }

	add	esp, 2064				; 00000810H
	ret	0
?IsFrameworkAssembly@@YA_NPAUIMetaDataAssemblyImport@@@Z ENDP ; IsFrameworkAssembly
_TEXT	ENDS
PUBLIC	?IsNetInternal@SignatureReader@@QAE_NI@Z	; SignatureReader::IsNetInternal
; Function compile flags: /Ogtpy
;	COMDAT ?IsNetInternal@SignatureReader@@QAE_NI@Z
_TEXT	SEGMENT
_funcToken$ = -4					; size = 4
_asmMetaData$ = 8					; size = 4
_fid$ = 8						; size = 4
?IsNetInternal@SignatureReader@@QAE_NI@Z PROC		; SignatureReader::IsNetInternal, COMDAT
; _this$ = eax

; 581  : {

	push	ecx

; 582  : 	mdToken funcToken;
; 583  : 	HRESULT hr = S_OK;
; 584  : 	IMetaDataAssemblyImport *asmMetaData;
; 585  : 
; 586  : 	hr = profilerInfo->GetTokenAndMetaDataFromFunction(fid, IID_IMetaDataAssemblyImport, (LPUNKNOWN *) &asmMetaData, &funcToken);

	mov	eax, DWORD PTR [eax]
	mov	ecx, DWORD PTR [eax]
	lea	edx, DWORD PTR _funcToken$[esp+4]
	push	edx
	lea	edx, DWORD PTR _asmMetaData$[esp+4]
	push	edx
	mov	edx, DWORD PTR _fid$[esp+8]
	push	OFFSET _IID_IMetaDataAssemblyImport
	push	edx
	push	eax
	mov	eax, DWORD PTR [ecx+76]
	call	eax

; 587  : 	
; 588  : 	if (SUCCEEDED(hr) && asmMetaData != nullptr)

	test	eax, eax
	jl	SHORT $LN1@IsNetInter
	mov	eax, DWORD PTR _asmMetaData$[esp]
	test	eax, eax
	je	SHORT $LN1@IsNetInter

; 589  : 		return IsFrameworkAssembly(asmMetaData);

	call	?IsFrameworkAssembly@@YA_NPAUIMetaDataAssemblyImport@@@Z ; IsFrameworkAssembly

; 592  : }

	pop	ecx
	ret	4
$LN1@IsNetInter:

; 590  : 	
; 591  : 	return false;

	xor	al, al

; 592  : }

	pop	ecx
	ret	4
?IsNetInternal@SignatureReader@@QAE_NI@Z ENDP		; SignatureReader::IsNetInternal
_TEXT	ENDS
PUBLIC	?ReadByte@SignatureReader@@AAE_NPAE@Z		; SignatureReader::ReadByte
; Function compile flags: /Ogtpy
;	COMDAT ?ReadByte@SignatureReader@@AAE_NPAE@Z
_TEXT	SEGMENT
?ReadByte@SignatureReader@@AAE_NPAE@Z PROC		; SignatureReader::ReadByte, COMDAT
; _this$ = eax
; _out$ = edx

; 503  : 	if (this->data < this->endPosition) {

	mov	ecx, DWORD PTR [eax+12]
	cmp	ecx, DWORD PTR [eax+20]
	jae	SHORT $LN1@ReadByte

; 504  : 		*out = *this->data;

	mov	cl, BYTE PTR [ecx]
	mov	BYTE PTR [edx], cl

; 505  : 		this->data++;

	inc	DWORD PTR [eax+12]

; 506  : 		return true;

	mov	al, 1

; 510  : }

	ret	0
$LN1@ReadByte:

; 507  : 	}
; 508  : 
; 509  : 	return false;

	xor	al, al

; 510  : }

	ret	0
?ReadByte@SignatureReader@@AAE_NPAE@Z ENDP		; SignatureReader::ReadByte
; Function compile flags: /Ogtpy
; File c:\program files\microsoft sdks\windows\v6.0a\include\cor.h
_TEXT	ENDS
;	COMDAT ?CorSigUncompressData@@YAJPBEKPAK1@Z
_TEXT	SEGMENT
_pDataOut$ = 8						; size = 4
?CorSigUncompressData@@YAJPBEKPAK1@Z PROC		; CorSigUncompressData, COMDAT
; _pData$ = edx
; _pDataLen$ = edi

; 2290 :     HRESULT hr = S_OK;        
; 2291 :     BYTE const  *pBytes = reinterpret_cast<BYTE const*>(pData); 
; 2292 : 
; 2293 :     // Smallest.    
; 2294 :     if ((*pBytes & 0x80) == 0x00)       // 0??? ????    

	mov	cl, BYTE PTR [edx]
	push	ebp
	mov	ebp, DWORD PTR _pDataOut$[esp]
	push	esi
	xor	esi, esi
	test	cl, cl
	js	SHORT $LN12@CorSigUnco

; 2295 :     {   
; 2296 :         if (len < 1)
; 2297 :         {
; 2298 :             *pDataOut = NULL;
; 2299 :             *pDataLen = 0;
; 2300 :             hr = META_E_BAD_SIGNATURE;
; 2301 :         }
; 2302 :         else
; 2303 :         {
; 2304 :             *pDataOut = *pBytes;    

	movzx	eax, cl
	mov	DWORD PTR [ebp], eax

; 2342 :     }
; 2343 : 
; 2344 :     return hr;  

	mov	eax, esi
	pop	esi
	mov	DWORD PTR [edi], 1
	pop	ebp

; 2345 : 
; 2346 : }

	ret	0
$LN12@CorSigUnco:

; 2305 :             *pDataLen = 1; 
; 2306 :         }
; 2307 :     }    
; 2308 :     // Medium.  
; 2309 :     else if ((*pBytes & 0xC0) == 0x80)  // 10?? ????    

	mov	al, cl
	and	al, 192					; 000000c0H
	cmp	al, 128					; 00000080H
	jne	SHORT $LN8@CorSigUnco

; 2310 :     {   
; 2311 :         if (len < 2)
; 2312 :         {
; 2313 :             *pDataOut = NULL;
; 2314 :             *pDataLen = 0;
; 2315 :             hr = META_E_BAD_SIGNATURE;
; 2316 :         }
; 2317 :         else
; 2318 :         {
; 2319 :             *pDataOut = (ULONG)(((*pBytes & 0x3f) << 8 | *(pBytes+1)));    

	movzx	edx, BYTE PTR [edx+1]
	movzx	ecx, cl
	and	ecx, 63					; 0000003fH
	shl	ecx, 8
	or	ecx, edx

; 2342 :     }
; 2343 : 
; 2344 :     return hr;  

	mov	eax, esi
	pop	esi
	mov	DWORD PTR [ebp], ecx
	mov	DWORD PTR [edi], 2
	pop	ebp

; 2345 : 
; 2346 : }

	ret	0
$LN8@CorSigUnco:

; 2320 :             *pDataLen = 2; 
; 2321 :         }
; 2322 :     }   
; 2323 :     else if ((*pBytes & 0xE0) == 0xC0)      // 110? ????    

	mov	al, cl
	and	al, 224					; 000000e0H
	cmp	al, 192					; 000000c0H
	jne	SHORT $LN4@CorSigUnco

; 2324 :     {   
; 2325 :         if (len < 4)
; 2326 :         {
; 2327 :             *pDataOut = NULL;
; 2328 :             *pDataLen = 0;
; 2329 :             hr = META_E_BAD_SIGNATURE;
; 2330 :         }
; 2331 :         else
; 2332 :         {
; 2333 :             *pDataOut = (ULONG)(((*pBytes & 0x1f) << 24 | *(pBytes+1) << 16 | *(pBytes+2) << 8 | *(pBytes+3)));  

	movzx	eax, BYTE PTR [edx+1]
	movzx	ecx, cl
	and	ecx, 31					; 0000001fH
	shl	ecx, 8
	or	ecx, eax
	movzx	eax, BYTE PTR [edx+2]
	movzx	edx, BYTE PTR [edx+3]
	shl	ecx, 8
	or	ecx, eax
	shl	ecx, 8
	or	ecx, edx

; 2342 :     }
; 2343 : 
; 2344 :     return hr;  

	mov	eax, esi
	pop	esi
	mov	DWORD PTR [ebp], ecx
	mov	DWORD PTR [edi], 4
	pop	ebp

; 2345 : 
; 2346 : }

	ret	0
$LN4@CorSigUnco:

; 2334 :             *pDataLen = 4; 
; 2335 :         }
; 2336 :     }   
; 2337 :     else // We don't recognize this encoding
; 2338 :     {
; 2339 :         *pDataOut = NULL;

	mov	DWORD PTR [ebp], esi

; 2340 :         *pDataLen = 0;

	mov	DWORD PTR [edi], esi
	pop	esi

; 2341 :         hr = META_E_BAD_SIGNATURE;

	mov	eax, -2146233966			; 80131192H
	pop	ebp

; 2345 : 
; 2346 : }

	ret	0
?CorSigUncompressData@@YAJPBEKPAK1@Z ENDP		; CorSigUncompressData
; Function compile flags: /Ogtpy
; File c:\program files (x86)\microsoft visual studio 9.0\vc\include\xutility
;	COMDAT ??$_Fill_n@PAPAV?$basic_string@_WU?$char_traits@_W@std@@V?$allocator@_W@2@@std@@IPAV12@@std@@YAXPAPAV?$basic_string@_WU?$char_traits@_W@std@@V?$allocator@_W@2@@0@IABQAV10@Urandom_access_iterator_tag@0@U_Range_checked_iterator_tag@0@@Z
_TEXT	SEGMENT
__First$ = 8						; size = 4
___formal$ = 12						; size = 1
___formal$ = 16						; size = 1
??$_Fill_n@PAPAV?$basic_string@_WU?$char_traits@_W@std@@V?$allocator@_W@2@@std@@IPAV12@@std@@YAXPAPAV?$basic_string@_WU?$char_traits@_W@std@@V?$allocator@_W@2@@0@IABQAV10@Urandom_access_iterator_tag@0@U_Range_checked_iterator_tag@0@@Z PROC ; std::_Fill_n<std::basic_string<wchar_t,std::char_traits<wchar_t>,std::allocator<wchar_t> > * *,unsigned int,std::basic_string<wchar_t,std::char_traits<wchar_t>,std::allocator<wchar_t> > *>, COMDAT
; __Count$ = eax
; __Val$ = edx

; 3225 : 		// if _OutIt is checked, this will ensure we have enough space
; 3226 : 		_OutIt _Last = _First + _Count; (_Last);
; 3227 : 		_Fill_n(_CHECKED_BASE(_First), _Count, _Val,
; 3228 : 			_Range_checked_iterator_tag());

	mov	ecx, DWORD PTR __First$[esp-4]
	test	eax, eax
	jbe	SHORT $LN7@Fill_n@3
	push	esi
	npad	7
$LL9@Fill_n@3:
	mov	esi, DWORD PTR [edx]
	mov	DWORD PTR [ecx], esi
	dec	eax
	add	ecx, 4
	test	eax, eax
	ja	SHORT $LL9@Fill_n@3
	pop	esi
$LN7@Fill_n@3:

; 3229 : 	}

	ret	0
??$_Fill_n@PAPAV?$basic_string@_WU?$char_traits@_W@std@@V?$allocator@_W@2@@std@@IPAV12@@std@@YAXPAPAV?$basic_string@_WU?$char_traits@_W@std@@V?$allocator@_W@2@@0@IABQAV10@Urandom_access_iterator_tag@0@U_Range_checked_iterator_tag@0@@Z ENDP ; std::_Fill_n<std::basic_string<wchar_t,std::char_traits<wchar_t>,std::allocator<wchar_t> > * *,unsigned int,std::basic_string<wchar_t,std::char_traits<wchar_t>,std::allocator<wchar_t> > *>
; Function compile flags: /Ogtpy
_TEXT	ENDS
;	COMDAT ??$_Fill_n@PAPA_WIPA_W@std@@YAXPAPA_WIABQA_WUrandom_access_iterator_tag@0@U_Range_checked_iterator_tag@0@@Z
_TEXT	SEGMENT
__First$ = 8						; size = 4
___formal$ = 12						; size = 1
___formal$ = 16						; size = 1
??$_Fill_n@PAPA_WIPA_W@std@@YAXPAPA_WIABQA_WUrandom_access_iterator_tag@0@U_Range_checked_iterator_tag@0@@Z PROC ; std::_Fill_n<wchar_t * *,unsigned int,wchar_t *>, COMDAT
; __Count$ = eax
; __Val$ = edx

; 3225 : 		// if _OutIt is checked, this will ensure we have enough space
; 3226 : 		_OutIt _Last = _First + _Count; (_Last);
; 3227 : 		_Fill_n(_CHECKED_BASE(_First), _Count, _Val,
; 3228 : 			_Range_checked_iterator_tag());

	mov	ecx, DWORD PTR __First$[esp-4]
	test	eax, eax
	jbe	SHORT $LN7@Fill_n@4
	push	esi
	npad	7
$LL9@Fill_n@4:
	mov	esi, DWORD PTR [edx]
	mov	DWORD PTR [ecx], esi
	dec	eax
	add	ecx, 4
	test	eax, eax
	ja	SHORT $LL9@Fill_n@4
	pop	esi
$LN7@Fill_n@4:

; 3229 : 	}

	ret	0
??$_Fill_n@PAPA_WIPA_W@std@@YAXPAPA_WIABQA_WUrandom_access_iterator_tag@0@U_Range_checked_iterator_tag@0@@Z ENDP ; std::_Fill_n<wchar_t * *,unsigned int,wchar_t *>
; Function compile flags: /Ogtpy
_TEXT	ENDS
;	COMDAT ??$unchecked_fill_n@PAPAV?$basic_string@_WU?$char_traits@_W@std@@V?$allocator@_W@2@@std@@IPAV12@@stdext@@YAXPAPAV?$basic_string@_WU?$char_traits@_W@std@@V?$allocator@_W@2@@std@@IABQAV12@@Z
_TEXT	SEGMENT
__First$ = 8						; size = 4
??$unchecked_fill_n@PAPAV?$basic_string@_WU?$char_traits@_W@std@@V?$allocator@_W@2@@std@@IPAV12@@stdext@@YAXPAPAV?$basic_string@_WU?$char_traits@_W@std@@V?$allocator@_W@2@@std@@IABQAV12@@Z PROC ; stdext::unchecked_fill_n<std::basic_string<wchar_t,std::char_traits<wchar_t>,std::allocator<wchar_t> > * *,unsigned int,std::basic_string<wchar_t,std::char_traits<wchar_t>,std::allocator<wchar_t> > *>, COMDAT
; __Count$ = eax
; __Val$ = edx

; 3695 : 		_STD _Fill_n(_First, _Count, _Val, _STD _Iter_cat(_First), _STD _Range_checked_iterator_tag());

	mov	ecx, DWORD PTR __First$[esp-4]
	test	eax, eax
	jbe	SHORT $LN11@unchecked_@3
	push	esi
	npad	7
$LL13@unchecked_@3:
	mov	esi, DWORD PTR [edx]
	mov	DWORD PTR [ecx], esi
	dec	eax
	add	ecx, 4
	test	eax, eax
	ja	SHORT $LL13@unchecked_@3
	pop	esi
$LN11@unchecked_@3:

; 3696 : 	}

	ret	0
??$unchecked_fill_n@PAPAV?$basic_string@_WU?$char_traits@_W@std@@V?$allocator@_W@2@@std@@IPAV12@@stdext@@YAXPAPAV?$basic_string@_WU?$char_traits@_W@std@@V?$allocator@_W@2@@std@@IABQAV12@@Z ENDP ; stdext::unchecked_fill_n<std::basic_string<wchar_t,std::char_traits<wchar_t>,std::allocator<wchar_t> > * *,unsigned int,std::basic_string<wchar_t,std::char_traits<wchar_t>,std::allocator<wchar_t> > *>
; Function compile flags: /Ogtpy
_TEXT	ENDS
;	COMDAT ??$unchecked_fill_n@PAPA_WIPA_W@stdext@@YAXPAPA_WIABQA_W@Z
_TEXT	SEGMENT
__First$ = 8						; size = 4
??$unchecked_fill_n@PAPA_WIPA_W@stdext@@YAXPAPA_WIABQA_W@Z PROC ; stdext::unchecked_fill_n<wchar_t * *,unsigned int,wchar_t *>, COMDAT
; __Count$ = eax
; __Val$ = edx

; 3695 : 		_STD _Fill_n(_First, _Count, _Val, _STD _Iter_cat(_First), _STD _Range_checked_iterator_tag());

	mov	ecx, DWORD PTR __First$[esp-4]
	test	eax, eax
	jbe	SHORT $LN11@unchecked_@4
	push	esi
	npad	7
$LL13@unchecked_@4:
	mov	esi, DWORD PTR [edx]
	mov	DWORD PTR [ecx], esi
	dec	eax
	add	ecx, 4
	test	eax, eax
	ja	SHORT $LL13@unchecked_@4
	pop	esi
$LN11@unchecked_@4:

; 3696 : 	}

	ret	0
??$unchecked_fill_n@PAPA_WIPA_W@stdext@@YAXPAPA_WIABQA_W@Z ENDP ; stdext::unchecked_fill_n<wchar_t * *,unsigned int,wchar_t *>
; Function compile flags: /Ogtpy
; File c:\program files (x86)\microsoft visual studio 9.0\vc\include\memory
_TEXT	ENDS
;	COMDAT ??$_Uninit_fill_n@PAPAV?$basic_string@_WU?$char_traits@_W@std@@V?$allocator@_W@2@@std@@IPAV12@V?$allocator@PAV?$basic_string@_WU?$char_traits@_W@std@@V?$allocator@_W@2@@std@@@2@@std@@YAXPAPAV?$basic_string@_WU?$char_traits@_W@std@@V?$allocator@_W@2@@0@IABQAV10@AAV?$allocator@PAV?$basic_string@_WU?$char_traits@_W@std@@V?$allocator@_W@2@@std@@@0@U_Scalar_ptr_iterator_tag@0@U_Range_checked_iterator_tag@0@@Z
_TEXT	SEGMENT
__First$ = 8						; size = 4
___formal$ = 12						; size = 1
___formal$ = 16						; size = 1
??$_Uninit_fill_n@PAPAV?$basic_string@_WU?$char_traits@_W@std@@V?$allocator@_W@2@@std@@IPAV12@V?$allocator@PAV?$basic_string@_WU?$char_traits@_W@std@@V?$allocator@_W@2@@std@@@2@@std@@YAXPAPAV?$basic_string@_WU?$char_traits@_W@std@@V?$allocator@_W@2@@0@IABQAV10@AAV?$allocator@PAV?$basic_string@_WU?$char_traits@_W@std@@V?$allocator@_W@2@@std@@@0@U_Scalar_ptr_iterator_tag@0@U_Range_checked_iterator_tag@0@@Z PROC ; std::_Uninit_fill_n<std::basic_string<wchar_t,std::char_traits<wchar_t>,std::allocator<wchar_t> > * *,unsigned int,std::basic_string<wchar_t,std::char_traits<wchar_t>,std::allocator<wchar_t> > *,std::allocator<std::basic_string<wchar_t,std::char_traits<wchar_t>,std::allocator<wchar_t> > *> >, COMDAT
; __Count$ = eax
; __Val$ = edx

; 415  : 		_STDEXT unchecked_fill_n(_First, _Count, _Val);

	mov	ecx, DWORD PTR __First$[esp-4]
	test	eax, eax
	jbe	SHORT $LN13@Uninit_fil
	push	esi
	npad	7
$LL15@Uninit_fil:
	mov	esi, DWORD PTR [edx]
	mov	DWORD PTR [ecx], esi
	dec	eax
	add	ecx, 4
	test	eax, eax
	ja	SHORT $LL15@Uninit_fil
	pop	esi
$LN13@Uninit_fil:

; 416  : 	}

	ret	0
??$_Uninit_fill_n@PAPAV?$basic_string@_WU?$char_traits@_W@std@@V?$allocator@_W@2@@std@@IPAV12@V?$allocator@PAV?$basic_string@_WU?$char_traits@_W@std@@V?$allocator@_W@2@@std@@@2@@std@@YAXPAPAV?$basic_string@_WU?$char_traits@_W@std@@V?$allocator@_W@2@@0@IABQAV10@AAV?$allocator@PAV?$basic_string@_WU?$char_traits@_W@std@@V?$allocator@_W@2@@std@@@0@U_Scalar_ptr_iterator_tag@0@U_Range_checked_iterator_tag@0@@Z ENDP ; std::_Uninit_fill_n<std::basic_string<wchar_t,std::char_traits<wchar_t>,std::allocator<wchar_t> > * *,unsigned int,std::basic_string<wchar_t,std::char_traits<wchar_t>,std::allocator<wchar_t> > *,std::allocator<std::basic_string<wchar_t,std::char_traits<wchar_t>,std::allocator<wchar_t> > *> >
; Function compile flags: /Ogtpy
_TEXT	ENDS
;	COMDAT ??$_Uninit_fill_n@PAPA_WIPA_WV?$allocator@PA_W@std@@@std@@YAXPAPA_WIABQA_WAAV?$allocator@PA_W@0@U_Scalar_ptr_iterator_tag@0@U_Range_checked_iterator_tag@0@@Z
_TEXT	SEGMENT
__First$ = 8						; size = 4
___formal$ = 12						; size = 1
___formal$ = 16						; size = 1
??$_Uninit_fill_n@PAPA_WIPA_WV?$allocator@PA_W@std@@@std@@YAXPAPA_WIABQA_WAAV?$allocator@PA_W@0@U_Scalar_ptr_iterator_tag@0@U_Range_checked_iterator_tag@0@@Z PROC ; std::_Uninit_fill_n<wchar_t * *,unsigned int,wchar_t *,std::allocator<wchar_t *> >, COMDAT
; __Count$ = eax
; __Val$ = edx

; 415  : 		_STDEXT unchecked_fill_n(_First, _Count, _Val);

	mov	ecx, DWORD PTR __First$[esp-4]
	test	eax, eax
	jbe	SHORT $LN13@Uninit_fil@2
	push	esi
	npad	7
$LL15@Uninit_fil@2:
	mov	esi, DWORD PTR [edx]
	mov	DWORD PTR [ecx], esi
	dec	eax
	add	ecx, 4
	test	eax, eax
	ja	SHORT $LL15@Uninit_fil@2
	pop	esi
$LN13@Uninit_fil@2:

; 416  : 	}

	ret	0
??$_Uninit_fill_n@PAPA_WIPA_WV?$allocator@PA_W@std@@@std@@YAXPAPA_WIABQA_WAAV?$allocator@PA_W@0@U_Scalar_ptr_iterator_tag@0@U_Range_checked_iterator_tag@0@@Z ENDP ; std::_Uninit_fill_n<wchar_t * *,unsigned int,wchar_t *,std::allocator<wchar_t *> >
; Function compile flags: /Ogtpy
; File c:\program files (x86)\microsoft visual studio 9.0\vc\include\xmemory
_TEXT	ENDS
;	COMDAT ??$_Allocate@PAV?$basic_string@_WU?$char_traits@_W@std@@V?$allocator@_W@2@@std@@@std@@YAPAPAV?$basic_string@_WU?$char_traits@_W@std@@V?$allocator@_W@2@@0@IPAPAV10@@Z
_TEXT	SEGMENT
$T123247 = -16						; size = 4
$T123239 = -12						; size = 12
??$_Allocate@PAV?$basic_string@_WU?$char_traits@_W@std@@V?$allocator@_W@2@@std@@@std@@YAPAPAV?$basic_string@_WU?$char_traits@_W@std@@V?$allocator@_W@2@@0@IPAPAV10@@Z PROC ; std::_Allocate<std::basic_string<wchar_t,std::char_traits<wchar_t>,std::allocator<wchar_t> > *>, COMDAT
; __Count$ = ecx

; 37   : 	if (_Count <= 0)
; 38   : 		_Count = 0;
; 39   : 	else if (((_SIZT)(-1) / _Count) < sizeof (_Ty))

	or	eax, -1
	xor	edx, edx
	div	ecx
	sub	esp, 16					; 00000010H
	cmp	eax, 4
	jae	SHORT $LN1@Allocate

; 40   : 		_THROW_NCEE(std::bad_alloc, NULL);

	lea	eax, DWORD PTR $T123247[esp+16]
	push	eax
	lea	ecx, DWORD PTR $T123239[esp+20]
	mov	DWORD PTR $T123247[esp+20], 0
	call	DWORD PTR __imp_??0exception@std@@QAE@ABQBD@Z
	push	OFFSET __TI2?AVbad_alloc@std@@
	lea	ecx, DWORD PTR $T123239[esp+20]
	push	ecx
	mov	DWORD PTR $T123239[esp+24], OFFSET ??_7bad_alloc@std@@6B@
	call	__CxxThrowException@8
$LN13@Allocate:
$LN1@Allocate:

; 41   : 
; 42   : 		// allocate storage for _Count elements of type _Ty
; 43   : 	return ((_Ty _FARQ *)::operator new(_Count * sizeof (_Ty)));

	lea	edx, DWORD PTR [ecx*4]
	push	edx
	call	??2@YAPAXI@Z				; operator new
	add	esp, 4

; 44   : 	}

	add	esp, 16					; 00000010H
	ret	0
$LN12@Allocate:
??$_Allocate@PAV?$basic_string@_WU?$char_traits@_W@std@@V?$allocator@_W@2@@std@@@std@@YAPAPAV?$basic_string@_WU?$char_traits@_W@std@@V?$allocator@_W@2@@0@IPAPAV10@@Z ENDP ; std::_Allocate<std::basic_string<wchar_t,std::char_traits<wchar_t>,std::allocator<wchar_t> > *>
; Function compile flags: /Ogtpy
_TEXT	ENDS
;	COMDAT ??$_Allocate@PA_W@std@@YAPAPA_WIPAPA_W@Z
_TEXT	SEGMENT
$T123261 = -16						; size = 4
$T123253 = -12						; size = 12
??$_Allocate@PA_W@std@@YAPAPA_WIPAPA_W@Z PROC		; std::_Allocate<wchar_t *>, COMDAT
; __Count$ = ecx

; 37   : 	if (_Count <= 0)
; 38   : 		_Count = 0;
; 39   : 	else if (((_SIZT)(-1) / _Count) < sizeof (_Ty))

	or	eax, -1
	xor	edx, edx
	div	ecx
	sub	esp, 16					; 00000010H
	cmp	eax, 4
	jae	SHORT $LN1@Allocate@2

; 40   : 		_THROW_NCEE(std::bad_alloc, NULL);

	lea	eax, DWORD PTR $T123261[esp+16]
	push	eax
	lea	ecx, DWORD PTR $T123253[esp+20]
	mov	DWORD PTR $T123261[esp+20], 0
	call	DWORD PTR __imp_??0exception@std@@QAE@ABQBD@Z
	push	OFFSET __TI2?AVbad_alloc@std@@
	lea	ecx, DWORD PTR $T123253[esp+20]
	push	ecx
	mov	DWORD PTR $T123253[esp+24], OFFSET ??_7bad_alloc@std@@6B@
	call	__CxxThrowException@8
$LN13@Allocate@2:
$LN1@Allocate@2:

; 41   : 
; 42   : 		// allocate storage for _Count elements of type _Ty
; 43   : 	return ((_Ty _FARQ *)::operator new(_Count * sizeof (_Ty)));

	lea	edx, DWORD PTR [ecx*4]
	push	edx
	call	??2@YAPAXI@Z				; operator new
	add	esp, 4

; 44   : 	}

	add	esp, 16					; 00000010H
	ret	0
$LN12@Allocate@2:
??$_Allocate@PA_W@std@@YAPAPA_WIPAPA_W@Z ENDP		; std::_Allocate<wchar_t *>
_TEXT	ENDS
;	COMDAT xdata$x
; File c:\program files (x86)\microsoft visual studio 9.0\vc\include\new
xdata$x	SEGMENT
__unwindtable$??$_Construct@V?$basic_string@_WU?$char_traits@_W@std@@V?$allocator@_W@2@@std@@V12@@std@@YAXPAV?$basic_string@_WU?$char_traits@_W@std@@V?$allocator@_W@2@@0@ABV10@@Z DD 0ffffffffH
	DD	FLAT:__unwindfunclet$??$_Construct@V?$basic_string@_WU?$char_traits@_W@std@@V?$allocator@_W@2@@std@@V12@@std@@YAXPAV?$basic_string@_WU?$char_traits@_W@std@@V?$allocator@_W@2@@0@ABV10@@Z$0
__ehfuncinfo$??$_Construct@V?$basic_string@_WU?$char_traits@_W@std@@V?$allocator@_W@2@@std@@V12@@std@@YAXPAV?$basic_string@_WU?$char_traits@_W@std@@V?$allocator@_W@2@@0@ABV10@@Z DD 019930522H
	DD	01H
	DD	FLAT:__unwindtable$??$_Construct@V?$basic_string@_WU?$char_traits@_W@std@@V?$allocator@_W@2@@std@@V12@@std@@YAXPAV?$basic_string@_WU?$char_traits@_W@std@@V?$allocator@_W@2@@0@ABV10@@Z
	DD	2 DUP(00H)
	DD	2 DUP(00H)
	DD	00H
	DD	01H
; Function compile flags: /Ogtpy
; File c:\program files (x86)\microsoft visual studio 9.0\vc\include\xmemory
xdata$x	ENDS
;	COMDAT ??$_Construct@V?$basic_string@_WU?$char_traits@_W@std@@V?$allocator@_W@2@@std@@V12@@std@@YAXPAV?$basic_string@_WU?$char_traits@_W@std@@V?$allocator@_W@2@@0@ABV10@@Z
_TEXT	SEGMENT
__$EHRec$ = -12						; size = 12
__Val$ = 8						; size = 4
??$_Construct@V?$basic_string@_WU?$char_traits@_W@std@@V?$allocator@_W@2@@std@@V12@@std@@YAXPAV?$basic_string@_WU?$char_traits@_W@std@@V?$allocator@_W@2@@0@ABV10@@Z PROC ; std::_Construct<std::basic_string<wchar_t,std::char_traits<wchar_t>,std::allocator<wchar_t> >,std::basic_string<wchar_t,std::char_traits<wchar_t>,std::allocator<wchar_t> > >, COMDAT
; __Ptr$ = ecx

; 50   : 	{	// construct object at _Ptr with value _Val

	mov	eax, DWORD PTR fs:0
	push	-1
	push	__ehhandler$??$_Construct@V?$basic_string@_WU?$char_traits@_W@std@@V?$allocator@_W@2@@std@@V12@@std@@YAXPAV?$basic_string@_WU?$char_traits@_W@std@@V?$allocator@_W@2@@0@ABV10@@Z
	push	eax
	mov	DWORD PTR fs:0, esp

; 51   : 	void _FARQ *_Vptr = _Ptr;
; 52   : 	::new (_Vptr) _T1(_Val);

	mov	DWORD PTR __$EHRec$[esp+20], 0
	test	ecx, ecx
	je	SHORT $LN3@Construct
	mov	eax, DWORD PTR __Val$[esp+8]
	push	eax
	call	DWORD PTR __imp_??0?$basic_string@_WU?$char_traits@_W@std@@V?$allocator@_W@2@@std@@QAE@ABV01@@Z
$LN3@Construct:

; 53   : 	}

	mov	ecx, DWORD PTR __$EHRec$[esp+12]
	mov	DWORD PTR fs:0, ecx
	add	esp, 12					; 0000000cH
	ret	0
_TEXT	ENDS
;	COMDAT text$x
text$x	SEGMENT
__unwindfunclet$??$_Construct@V?$basic_string@_WU?$char_traits@_W@std@@V?$allocator@_W@2@@std@@V12@@std@@YAXPAV?$basic_string@_WU?$char_traits@_W@std@@V?$allocator@_W@2@@0@ABV10@@Z$0:
	jmp	??3@YAXPAX0@Z				; operator delete
__ehhandler$??$_Construct@V?$basic_string@_WU?$char_traits@_W@std@@V?$allocator@_W@2@@std@@V12@@std@@YAXPAV?$basic_string@_WU?$char_traits@_W@std@@V?$allocator@_W@2@@0@ABV10@@Z:
	mov	eax, OFFSET __ehfuncinfo$??$_Construct@V?$basic_string@_WU?$char_traits@_W@std@@V?$allocator@_W@2@@std@@V12@@std@@YAXPAV?$basic_string@_WU?$char_traits@_W@std@@V?$allocator@_W@2@@0@ABV10@@Z
	jmp	___CxxFrameHandler3
text$x	ENDS
??$_Construct@V?$basic_string@_WU?$char_traits@_W@std@@V?$allocator@_W@2@@std@@V12@@std@@YAXPAV?$basic_string@_WU?$char_traits@_W@std@@V?$allocator@_W@2@@0@ABV10@@Z ENDP ; std::_Construct<std::basic_string<wchar_t,std::char_traits<wchar_t>,std::allocator<wchar_t> >,std::basic_string<wchar_t,std::char_traits<wchar_t>,std::allocator<wchar_t> > >
; Function compile flags: /Ogtpy
;	COMDAT ??$_Allocate@V?$basic_string@_WU?$char_traits@_W@std@@V?$allocator@_W@2@@std@@@std@@YAPAV?$basic_string@_WU?$char_traits@_W@std@@V?$allocator@_W@2@@0@IPAV10@@Z
_TEXT	SEGMENT
$T123292 = -16						; size = 4
$T123284 = -12						; size = 12
??$_Allocate@V?$basic_string@_WU?$char_traits@_W@std@@V?$allocator@_W@2@@std@@@std@@YAPAV?$basic_string@_WU?$char_traits@_W@std@@V?$allocator@_W@2@@0@IPAV10@@Z PROC ; std::_Allocate<std::basic_string<wchar_t,std::char_traits<wchar_t>,std::allocator<wchar_t> > >, COMDAT
; __Count$ = ecx

; 37   : 	if (_Count <= 0)
; 38   : 		_Count = 0;
; 39   : 	else if (((_SIZT)(-1) / _Count) < sizeof (_Ty))

	or	eax, -1
	xor	edx, edx
	div	ecx
	sub	esp, 16					; 00000010H
	cmp	eax, 28					; 0000001cH
	jae	SHORT $LN1@Allocate@3

; 40   : 		_THROW_NCEE(std::bad_alloc, NULL);

	lea	eax, DWORD PTR $T123292[esp+16]
	push	eax
	lea	ecx, DWORD PTR $T123284[esp+20]
	mov	DWORD PTR $T123292[esp+20], 0
	call	DWORD PTR __imp_??0exception@std@@QAE@ABQBD@Z
	push	OFFSET __TI2?AVbad_alloc@std@@
	lea	ecx, DWORD PTR $T123284[esp+20]
	push	ecx
	mov	DWORD PTR $T123284[esp+24], OFFSET ??_7bad_alloc@std@@6B@
	call	__CxxThrowException@8
$LN13@Allocate@3:
$LN1@Allocate@3:

; 41   : 
; 42   : 		// allocate storage for _Count elements of type _Ty
; 43   : 	return ((_Ty _FARQ *)::operator new(_Count * sizeof (_Ty)));

	lea	edx, DWORD PTR [ecx*8]
	sub	edx, ecx
	add	edx, edx
	add	edx, edx
	push	edx
	call	??2@YAPAXI@Z				; operator new
	add	esp, 4

; 44   : 	}

	add	esp, 16					; 00000010H
	ret	0
$LN12@Allocate@3:
??$_Allocate@V?$basic_string@_WU?$char_traits@_W@std@@V?$allocator@_W@2@@std@@@std@@YAPAV?$basic_string@_WU?$char_traits@_W@std@@V?$allocator@_W@2@@0@IPAV10@@Z ENDP ; std::_Allocate<std::basic_string<wchar_t,std::char_traits<wchar_t>,std::allocator<wchar_t> > >
; Function compile flags: /Ogtpy
; File c:\program files (x86)\microsoft visual studio 9.0\vc\include\memory
_TEXT	ENDS
;	COMDAT ??$unchecked_uninitialized_fill_n@PAPAV?$basic_string@_WU?$char_traits@_W@std@@V?$allocator@_W@2@@std@@IPAV12@V?$allocator@PAV?$basic_string@_WU?$char_traits@_W@std@@V?$allocator@_W@2@@std@@@2@@stdext@@YAXPAPAV?$basic_string@_WU?$char_traits@_W@std@@V?$allocator@_W@2@@std@@IABQAV12@AAV?$allocator@PAV?$basic_string@_WU?$char_traits@_W@std@@V?$allocator@_W@2@@std@@@2@@Z
_TEXT	SEGMENT
__First$ = 8						; size = 4
??$unchecked_uninitialized_fill_n@PAPAV?$basic_string@_WU?$char_traits@_W@std@@V?$allocator@_W@2@@std@@IPAV12@V?$allocator@PAV?$basic_string@_WU?$char_traits@_W@std@@V?$allocator@_W@2@@std@@@2@@stdext@@YAXPAPAV?$basic_string@_WU?$char_traits@_W@std@@V?$allocator@_W@2@@std@@IABQAV12@AAV?$allocator@PAV?$basic_string@_WU?$char_traits@_W@std@@V?$allocator@_W@2@@std@@@2@@Z PROC ; stdext::unchecked_uninitialized_fill_n<std::basic_string<wchar_t,std::char_traits<wchar_t>,std::allocator<wchar_t> > * *,unsigned int,std::basic_string<wchar_t,std::char_traits<wchar_t>,std::allocator<wchar_t> > *,std::allocator<std::basic_string<wchar_t,std::char_traits<wchar_t>,std::allocator<wchar_t> > *> >, COMDAT
; __Count$ = eax
; __Val$ = edx

; 921  : 		_STD _Uninit_fill_n(_First, _Count, _Val, _Al,
; 922  : 			_STD _Ptr_cat(_First, _First), _STD _Range_checked_iterator_tag());

	mov	ecx, DWORD PTR __First$[esp-4]
	test	eax, eax
	jbe	SHORT $LN17@unchecked_@5
	push	esi
	npad	7
$LL19@unchecked_@5:
	mov	esi, DWORD PTR [edx]
	mov	DWORD PTR [ecx], esi
	dec	eax
	add	ecx, 4
	test	eax, eax
	ja	SHORT $LL19@unchecked_@5
	pop	esi
$LN17@unchecked_@5:

; 923  : 	}

	ret	0
??$unchecked_uninitialized_fill_n@PAPAV?$basic_string@_WU?$char_traits@_W@std@@V?$allocator@_W@2@@std@@IPAV12@V?$allocator@PAV?$basic_string@_WU?$char_traits@_W@std@@V?$allocator@_W@2@@std@@@2@@stdext@@YAXPAPAV?$basic_string@_WU?$char_traits@_W@std@@V?$allocator@_W@2@@std@@IABQAV12@AAV?$allocator@PAV?$basic_string@_WU?$char_traits@_W@std@@V?$allocator@_W@2@@std@@@2@@Z ENDP ; stdext::unchecked_uninitialized_fill_n<std::basic_string<wchar_t,std::char_traits<wchar_t>,std::allocator<wchar_t> > * *,unsigned int,std::basic_string<wchar_t,std::char_traits<wchar_t>,std::allocator<wchar_t> > *,std::allocator<std::basic_string<wchar_t,std::char_traits<wchar_t>,std::allocator<wchar_t> > *> >
; Function compile flags: /Ogtpy
_TEXT	ENDS
;	COMDAT ??$unchecked_uninitialized_fill_n@PAPA_WIPA_WV?$allocator@PA_W@std@@@stdext@@YAXPAPA_WIABQA_WAAV?$allocator@PA_W@std@@@Z
_TEXT	SEGMENT
__First$ = 8						; size = 4
??$unchecked_uninitialized_fill_n@PAPA_WIPA_WV?$allocator@PA_W@std@@@stdext@@YAXPAPA_WIABQA_WAAV?$allocator@PA_W@std@@@Z PROC ; stdext::unchecked_uninitialized_fill_n<wchar_t * *,unsigned int,wchar_t *,std::allocator<wchar_t *> >, COMDAT
; __Count$ = eax
; __Val$ = edx

; 921  : 		_STD _Uninit_fill_n(_First, _Count, _Val, _Al,
; 922  : 			_STD _Ptr_cat(_First, _First), _STD _Range_checked_iterator_tag());

	mov	ecx, DWORD PTR __First$[esp-4]
	test	eax, eax
	jbe	SHORT $LN17@unchecked_@6
	push	esi
	npad	7
$LL19@unchecked_@6:
	mov	esi, DWORD PTR [edx]
	mov	DWORD PTR [ecx], esi
	dec	eax
	add	ecx, 4
	test	eax, eax
	ja	SHORT $LL19@unchecked_@6
	pop	esi
$LN17@unchecked_@6:

; 923  : 	}

	ret	0
??$unchecked_uninitialized_fill_n@PAPA_WIPA_WV?$allocator@PA_W@std@@@stdext@@YAXPAPA_WIABQA_WAAV?$allocator@PA_W@std@@@Z ENDP ; stdext::unchecked_uninitialized_fill_n<wchar_t * *,unsigned int,wchar_t *,std::allocator<wchar_t *> >
_TEXT	ENDS
;	COMDAT xdata$x
; File c:\program files (x86)\microsoft visual studio 9.0\vc\include\ios
xdata$x	SEGMENT
__unwindtable$??$?6_WU?$char_traits@_W@std@@@std@@YAAAV?$basic_ostream@_WU?$char_traits@_W@std@@@0@AAV10@PB_W@Z DD 0ffffffffH
	DD	FLAT:__unwindfunclet$??$?6_WU?$char_traits@_W@std@@@std@@YAAAV?$basic_ostream@_WU?$char_traits@_W@std@@@0@AAV10@PB_W@Z$2
	DD	00H
	DD	00H
	DD	00H
	DD	00H
	DD	0ffffffffH
	DD	FLAT:__unwindfunclet$??$?6_WU?$char_traits@_W@std@@@std@@YAAAV?$basic_ostream@_WU?$char_traits@_W@std@@@0@AAV10@PB_W@Z$3
__catchsym$??$?6_WU?$char_traits@_W@std@@@std@@YAAAV?$basic_ostream@_WU?$char_traits@_W@std@@@0@AAV10@PB_W@Z$4 DD 040H
	DD	00H
	DD	00H
	DD	FLAT:__catch$??$?6_WU?$char_traits@_W@std@@@std@@YAAAV?$basic_ostream@_WU?$char_traits@_W@std@@@0@AAV10@PB_W@Z$0
__tryblocktable$??$?6_WU?$char_traits@_W@std@@@std@@YAAAV?$basic_ostream@_WU?$char_traits@_W@std@@@0@AAV10@PB_W@Z DD 01H
	DD	01H
	DD	02H
	DD	01H
	DD	FLAT:__catchsym$??$?6_WU?$char_traits@_W@std@@@std@@YAAAV?$basic_ostream@_WU?$char_traits@_W@std@@@0@AAV10@PB_W@Z$4
__ehfuncinfo$??$?6_WU?$char_traits@_W@std@@@std@@YAAAV?$basic_ostream@_WU?$char_traits@_W@std@@@0@AAV10@PB_W@Z DD 019930522H
	DD	04H
	DD	FLAT:__unwindtable$??$?6_WU?$char_traits@_W@std@@@std@@YAAAV?$basic_ostream@_WU?$char_traits@_W@std@@@0@AAV10@PB_W@Z
	DD	01H
	DD	FLAT:__tryblocktable$??$?6_WU?$char_traits@_W@std@@@std@@YAAAV?$basic_ostream@_WU?$char_traits@_W@std@@@0@AAV10@PB_W@Z
	DD	2 DUP(00H)
	DD	00H
	DD	01H
; Function compile flags: /Ogtpy
; File c:\program files (x86)\microsoft visual studio 9.0\vc\include\ostream
xdata$x	ENDS
;	COMDAT ??$?6_WU?$char_traits@_W@std@@@std@@YAAAV?$basic_ostream@_WU?$char_traits@_W@std@@@0@AAV10@PB_W@Z
_TEXT	SEGMENT
__Ok$ = -28						; size = 8
__State$ = -20						; size = 4
__$EHRec$ = -16						; size = 16
__Ostr$ = 8						; size = 4
__Val$ = 12						; size = 4
??$?6_WU?$char_traits@_W@std@@@std@@YAAAV?$basic_ostream@_WU?$char_traits@_W@std@@@0@AAV10@PB_W@Z PROC ; std::operator<<<wchar_t,std::char_traits<wchar_t> >, COMDAT

; 827  : 	{	// insert NTCS

	push	ebp
	mov	ebp, esp
	push	-1
	push	__ehhandler$??$?6_WU?$char_traits@_W@std@@@std@@YAAAV?$basic_ostream@_WU?$char_traits@_W@std@@@0@AAV10@PB_W@Z
	mov	eax, DWORD PTR fs:0
	push	eax
	mov	DWORD PTR fs:0, esp
	sub	esp, 16					; 00000010H

; 828  : 	typedef basic_ostream<_Elem, _Traits> _Myos;
; 829  : 	ios_base::iostate _State = ios_base::goodbit;
; 830  : 	streamsize _Count = (streamsize)_Traits::length(_Val);	// may overflow

	mov	eax, DWORD PTR __Val$[ebp]
	push	ebx
	push	esi
	mov	esi, DWORD PTR __Ostr$[ebp]
	push	edi
	xor	ebx, ebx
	mov	DWORD PTR __$EHRec$[ebp], esp
	mov	DWORD PTR __State$[ebp], ebx
	lea	edx, DWORD PTR [eax+2]
	npad	1
$LL72@operator:
	mov	cx, WORD PTR [eax]
	add	eax, 2
	cmp	cx, bx
	jne	SHORT $LL72@operator
	sub	eax, edx
	sar	eax, 1
	mov	edi, eax

; 831  : 	streamsize _Pad = _Ostr.width() <= 0 || _Ostr.width() <= _Count
; 832  : 		? 0 : _Ostr.width() - _Count;

	mov	eax, DWORD PTR [esi]
	mov	ecx, DWORD PTR [eax+4]
	mov	eax, DWORD PTR [ecx+esi+24]
	cmp	eax, ebx
	jle	SHORT $LN17@operator
	cmp	eax, edi
	jle	SHORT $LN17@operator
	sub	eax, edi
	mov	ebx, eax
$LN17@operator:

; 833  : 	const typename _Myos::sentry _Ok(_Ostr);

	lea	edx, DWORD PTR __Ok$[ebp]
	push	edx
	call	??0sentry@?$basic_ostream@_WU?$char_traits@_W@std@@@std@@QAE@AAV12@@Z ; std::basic_ostream<wchar_t,std::char_traits<wchar_t> >::sentry::sentry
	mov	DWORD PTR __$EHRec$[ebp+12], 0

; 834  : 
; 835  : 	if (!_Ok)

	cmp	BYTE PTR __Ok$[ebp+4], 0
	jne	SHORT $LN14@operator

; 836  : 		_State |= ios_base::badbit;

	mov	DWORD PTR __State$[ebp], 4

; 837  : 	else

	jmp	$LN22@operator
$LN14@operator:

; 838  : 		{	// state okay, insert
; 839  : 		_TRY_IO_BEGIN

	mov	BYTE PTR __$EHRec$[ebp+12], 1

; 840  : 		if ((_Ostr.flags() & ios_base::adjustfield) != ios_base::left)

	mov	eax, DWORD PTR [esi]
	mov	ecx, DWORD PTR [eax+4]
	mov	eax, DWORD PTR [ecx+esi+16]
	and	eax, 448				; 000001c0H
	cmp	eax, 64					; 00000040H
	je	SHORT $LN70@operator
	npad	1
$LL10@operator:

; 841  : 			for (; 0 < _Pad; --_Pad)	// pad on left

	test	ebx, ebx
	jle	SHORT $LN8@operator

; 842  : 				if (_Traits::eq_int_type(_Traits::eof(),
; 843  : 					_Ostr.rdbuf()->sputc(_Ostr.fill())))

	mov	edx, DWORD PTR [esi]
	mov	eax, DWORD PTR [edx+4]
	movzx	edx, WORD PTR [eax+esi+48]
	add	eax, esi
	mov	eax, DWORD PTR [eax+40]
	push	edx
	mov	ecx, eax
	call	DWORD PTR __imp_?sputc@?$basic_streambuf@_WU?$char_traits@_W@std@@@std@@QAEG_W@Z
	movzx	eax, ax
	mov	ecx, 65535				; 0000ffffH
	cmp	cx, ax
	jne	$LN9@operator

; 844  : 					{	// insertion failed, quit
; 845  : 					_State |= ios_base::badbit;

	or	DWORD PTR __State$[ebp], 4
$LN8@operator:

; 846  : 					break;
; 847  : 					}
; 848  : 
; 849  : 		if (_State == ios_base::goodbit
; 850  : 			&& _Ostr.rdbuf()->sputn(_Val, _Count) != _Count)

	cmp	DWORD PTR __State$[ebp], 0
	jne	SHORT $LN2@operator
$LN70@operator:
	mov	edx, DWORD PTR [esi]
	mov	eax, DWORD PTR [edx+4]
	mov	edx, DWORD PTR __Val$[ebp]
	mov	ecx, DWORD PTR [eax+esi+40]
	push	edi
	push	edx
	call	DWORD PTR __imp_?sputn@?$basic_streambuf@_WU?$char_traits@_W@std@@@std@@QAEHPB_WH@Z
	cmp	eax, edi
	je	SHORT $LL71@operator

; 851  : 			_State |= ios_base::badbit;

	mov	DWORD PTR __State$[ebp], 4
$LN2@operator:

; 860  : 					}
; 861  : 		_Ostr.width(0);

	mov	edx, DWORD PTR [esi]
	mov	eax, DWORD PTR [edx+4]
	add	eax, esi
	xor	ecx, ecx
	mov	DWORD PTR [eax+24], ecx
	mov	DWORD PTR __$EHRec$[ebp+12], ecx
$LN22@operator:

; 863  : 		}
; 864  : 
; 865  : 	_Ostr.setstate(_State);

	mov	ecx, DWORD PTR [esi]
	mov	eax, DWORD PTR __State$[ebp]
	mov	ecx, DWORD PTR [ecx+4]
	push	0
	push	eax
	add	ecx, esi
	call	DWORD PTR __imp_?setstate@?$basic_ios@_WU?$char_traits@_W@std@@@std@@QAEXH_N@Z

; 866  : 	return (_Ostr);

	mov	DWORD PTR __$EHRec$[ebp+12], 3
	call	DWORD PTR __imp_?uncaught_exception@std@@YA_NXZ
	test	al, al
	jne	SHORT $LN56@operator
	mov	ecx, DWORD PTR __Ok$[ebp]
	call	DWORD PTR __imp_?_Osfx@?$basic_ostream@_WU?$char_traits@_W@std@@@std@@QAEXXZ
$LN56@operator:
	mov	DWORD PTR __$EHRec$[ebp+12], -1
	mov	eax, DWORD PTR __Ok$[ebp]
	mov	edx, DWORD PTR [eax]
	mov	ecx, DWORD PTR [edx+4]
	mov	ecx, DWORD PTR [ecx+eax+40]
	test	ecx, ecx
	je	SHORT $LN74@operator
	call	DWORD PTR __imp_?_Unlock@?$basic_streambuf@_WU?$char_traits@_W@std@@@std@@QAEXXZ
$LN74@operator:

; 867  : 	}

	mov	ecx, DWORD PTR __$EHRec$[ebp+4]
	pop	edi
	mov	eax, esi
	pop	esi
	mov	DWORD PTR fs:0, ecx
	pop	ebx
	mov	esp, ebp
	pop	ebp
	ret	0
$LN9@operator:

; 841  : 			for (; 0 < _Pad; --_Pad)	// pad on left

	dec	ebx
	jmp	$LL10@operator
$LL71@operator:

; 852  : 
; 853  : 		if (_State == ios_base::goodbit)
; 854  : 			for (; 0 < _Pad; --_Pad)	// pad on right

	test	ebx, ebx
	jle	SHORT $LN2@operator

; 855  : 				if (_Traits::eq_int_type(_Traits::eof(),
; 856  : 					_Ostr.rdbuf()->sputc(_Ostr.fill())))

	mov	eax, DWORD PTR [esi]
	mov	ecx, DWORD PTR [eax+4]
	movzx	edx, WORD PTR [ecx+esi+48]
	lea	eax, DWORD PTR [ecx+esi]
	mov	eax, DWORD PTR [eax+40]
	push	edx
	mov	ecx, eax
	call	DWORD PTR __imp_?sputc@?$basic_streambuf@_WU?$char_traits@_W@std@@@std@@QAEG_W@Z
	movzx	eax, ax
	mov	edx, 65535				; 0000ffffH
	cmp	dx, ax
	jne	SHORT $LN3@operator

; 857  : 					{	// insertion failed, quit
; 858  : 					_State |= ios_base::badbit;

	or	DWORD PTR __State$[ebp], 4

; 859  : 					break;

	jmp	$LN2@operator
$LN3@operator:

; 852  : 
; 853  : 		if (_State == ios_base::goodbit)
; 854  : 			for (; 0 < _Pad; --_Pad)	// pad on right

	dec	ebx
	jmp	SHORT $LL71@operator
__catch$??$?6_WU?$char_traits@_W@std@@@std@@YAAAV?$basic_ostream@_WU?$char_traits@_W@std@@@0@AAV10@PB_W@Z$0:

; 862  : 		_CATCH_IO_(_Ostr)

	mov	eax, DWORD PTR __Ostr$[ebp]
	mov	ecx, DWORD PTR [eax]
	mov	ecx, DWORD PTR [ecx+4]
	push	1
	push	4
	add	ecx, eax
	call	DWORD PTR __imp_?setstate@?$basic_ios@_WU?$char_traits@_W@std@@@std@@QAEXH_N@Z
	mov	DWORD PTR __$EHRec$[ebp+12], 0
	mov	eax, $LN23@operator
	ret	0
$LN23@operator:
	mov	esi, DWORD PTR __Ostr$[ebp]
	jmp	$LN22@operator
_TEXT	ENDS
;	COMDAT text$x
text$x	SEGMENT
__unwindfunclet$??$?6_WU?$char_traits@_W@std@@@std@@YAAAV?$basic_ostream@_WU?$char_traits@_W@std@@@0@AAV10@PB_W@Z$2:
	lea	eax, DWORD PTR __Ok$[ebp]
	push	eax
	call	??1sentry@?$basic_ostream@_WU?$char_traits@_W@std@@@std@@QAE@XZ ; std::basic_ostream<wchar_t,std::char_traits<wchar_t> >::sentry::~sentry
	ret	0
__unwindfunclet$??$?6_WU?$char_traits@_W@std@@@std@@YAAAV?$basic_ostream@_WU?$char_traits@_W@std@@@0@AAV10@PB_W@Z$3:
	lea	eax, DWORD PTR __Ok$[ebp]
	jmp	??1_Sentry_base@?$basic_ostream@_WU?$char_traits@_W@std@@@std@@QAE@XZ ; std::basic_ostream<wchar_t,std::char_traits<wchar_t> >::_Sentry_base::~_Sentry_base
__ehhandler$??$?6_WU?$char_traits@_W@std@@@std@@YAAAV?$basic_ostream@_WU?$char_traits@_W@std@@@0@AAV10@PB_W@Z:
	mov	eax, OFFSET __ehfuncinfo$??$?6_WU?$char_traits@_W@std@@@std@@YAAAV?$basic_ostream@_WU?$char_traits@_W@std@@@0@AAV10@PB_W@Z
	jmp	___CxxFrameHandler3
text$x	ENDS
??$?6_WU?$char_traits@_W@std@@@std@@YAAAV?$basic_ostream@_WU?$char_traits@_W@std@@@0@AAV10@PB_W@Z ENDP ; std::operator<<<wchar_t,std::char_traits<wchar_t> >
; Function compile flags: /Ogtpy
;	COMDAT ??0?$_Iterator_with_base@Urandom_access_iterator_tag@std@@V?$basic_string@_WU?$char_traits@_W@std@@V?$allocator@_W@2@@2@HPBV32@ABV32@V_Iterator_base_aux@2@@std@@QAE@XZ
_TEXT	SEGMENT
??0?$_Iterator_with_base@Urandom_access_iterator_tag@std@@V?$basic_string@_WU?$char_traits@_W@std@@V?$allocator@_W@2@@2@HPBV32@ABV32@V_Iterator_base_aux@2@@std@@QAE@XZ PROC ; std::_Iterator_with_base<std::random_access_iterator_tag,std::basic_string<wchar_t,std::char_traits<wchar_t>,std::allocator<wchar_t> >,int,std::basic_string<wchar_t,std::char_traits<wchar_t>,std::allocator<wchar_t> > const *,std::basic_string<wchar_t,std::char_traits<wchar_t>,std::allocator<wchar_t> > const &,std::_Iterator_base_aux>::_Iterator_with_base<std::random_access_iterator_tag,std::basic_string<wchar_t,std::char_traits<wchar_t>,std::allocator<wchar_t> >,int,std::basic_string<wchar_t,std::char_traits<wchar_t>,std::allocator<wchar_t> > const *,std::basic_string<wchar_t,std::char_traits<wchar_t>,std::allocator<wchar_t> > const &,std::_Iterator_base_aux>, COMDAT
; _this$ = eax
	mov	DWORD PTR [eax], 0
	ret	0
??0?$_Iterator_with_base@Urandom_access_iterator_tag@std@@V?$basic_string@_WU?$char_traits@_W@std@@V?$allocator@_W@2@@2@HPBV32@ABV32@V_Iterator_base_aux@2@@std@@QAE@XZ ENDP ; std::_Iterator_with_base<std::random_access_iterator_tag,std::basic_string<wchar_t,std::char_traits<wchar_t>,std::allocator<wchar_t> >,int,std::basic_string<wchar_t,std::char_traits<wchar_t>,std::allocator<wchar_t> > const *,std::basic_string<wchar_t,std::char_traits<wchar_t>,std::allocator<wchar_t> > const &,std::_Iterator_base_aux>::_Iterator_with_base<std::random_access_iterator_tag,std::basic_string<wchar_t,std::char_traits<wchar_t>,std::allocator<wchar_t> >,int,std::basic_string<wchar_t,std::char_traits<wchar_t>,std::allocator<wchar_t> > const *,std::basic_string<wchar_t,std::char_traits<wchar_t>,std::allocator<wchar_t> > const &,std::_Iterator_base_aux>
; Function compile flags: /Ogtpy
_TEXT	ENDS
;	COMDAT ??0?$_Iterator_with_base@Urandom_access_iterator_tag@std@@_WHPB_WAB_WV_Iterator_base_aux@2@@std@@QAE@XZ
_TEXT	SEGMENT
??0?$_Iterator_with_base@Urandom_access_iterator_tag@std@@_WHPB_WAB_WV_Iterator_base_aux@2@@std@@QAE@XZ PROC ; std::_Iterator_with_base<std::random_access_iterator_tag,wchar_t,int,wchar_t const *,wchar_t const &,std::_Iterator_base_aux>::_Iterator_with_base<std::random_access_iterator_tag,wchar_t,int,wchar_t const *,wchar_t const &,std::_Iterator_base_aux>, COMDAT
; _this$ = eax
	mov	DWORD PTR [eax], 0
	ret	0
??0?$_Iterator_with_base@Urandom_access_iterator_tag@std@@_WHPB_WAB_WV_Iterator_base_aux@2@@std@@QAE@XZ ENDP ; std::_Iterator_with_base<std::random_access_iterator_tag,wchar_t,int,wchar_t const *,wchar_t const &,std::_Iterator_base_aux>::_Iterator_with_base<std::random_access_iterator_tag,wchar_t,int,wchar_t const *,wchar_t const &,std::_Iterator_base_aux>
; Function compile flags: /Ogtpy
_TEXT	ENDS
;	COMDAT ??0?$_Ranit@V?$basic_string@_WU?$char_traits@_W@std@@V?$allocator@_W@2@@std@@HPBV12@ABV12@@std@@QAE@XZ
_TEXT	SEGMENT
??0?$_Ranit@V?$basic_string@_WU?$char_traits@_W@std@@V?$allocator@_W@2@@std@@HPBV12@ABV12@@std@@QAE@XZ PROC ; std::_Ranit<std::basic_string<wchar_t,std::char_traits<wchar_t>,std::allocator<wchar_t> >,int,std::basic_string<wchar_t,std::char_traits<wchar_t>,std::allocator<wchar_t> > const *,std::basic_string<wchar_t,std::char_traits<wchar_t>,std::allocator<wchar_t> > const &>::_Ranit<std::basic_string<wchar_t,std::char_traits<wchar_t>,std::allocator<wchar_t> >,int,std::basic_string<wchar_t,std::char_traits<wchar_t>,std::allocator<wchar_t> > const *,std::basic_string<wchar_t,std::char_traits<wchar_t>,std::allocator<wchar_t> > const &>, COMDAT
; _this$ = eax
	mov	DWORD PTR [eax], 0
	ret	0
??0?$_Ranit@V?$basic_string@_WU?$char_traits@_W@std@@V?$allocator@_W@2@@std@@HPBV12@ABV12@@std@@QAE@XZ ENDP ; std::_Ranit<std::basic_string<wchar_t,std::char_traits<wchar_t>,std::allocator<wchar_t> >,int,std::basic_string<wchar_t,std::char_traits<wchar_t>,std::allocator<wchar_t> > const *,std::basic_string<wchar_t,std::char_traits<wchar_t>,std::allocator<wchar_t> > const &>::_Ranit<std::basic_string<wchar_t,std::char_traits<wchar_t>,std::allocator<wchar_t> >,int,std::basic_string<wchar_t,std::char_traits<wchar_t>,std::allocator<wchar_t> > const *,std::basic_string<wchar_t,std::char_traits<wchar_t>,std::allocator<wchar_t> > const &>
; Function compile flags: /Ogtpy
_TEXT	ENDS
;	COMDAT ??0?$_Ranit@_WHPB_WAB_W@std@@QAE@XZ
_TEXT	SEGMENT
??0?$_Ranit@_WHPB_WAB_W@std@@QAE@XZ PROC		; std::_Ranit<wchar_t,int,wchar_t const *,wchar_t const &>::_Ranit<wchar_t,int,wchar_t const *,wchar_t const &>, COMDAT
; _this$ = eax
	mov	DWORD PTR [eax], 0
	ret	0
??0?$_Ranit@_WHPB_WAB_W@std@@QAE@XZ ENDP		; std::_Ranit<wchar_t,int,wchar_t const *,wchar_t const &>::_Ranit<wchar_t,int,wchar_t const *,wchar_t const &>
; Function compile flags: /Ogtpy
; File c:\program files (x86)\microsoft visual studio 9.0\vc\include\deque
_TEXT	ENDS
;	COMDAT ??0?$_Deque_const_iterator@V?$basic_string@_WU?$char_traits@_W@std@@V?$allocator@_W@2@@std@@V?$allocator@V?$basic_string@_WU?$char_traits@_W@std@@V?$allocator@_W@2@@std@@@2@$00@std@@QAE@IPBV_Container_base_aux@1@@Z
_TEXT	SEGMENT
__Off$ = 8						; size = 4
??0?$_Deque_const_iterator@V?$basic_string@_WU?$char_traits@_W@std@@V?$allocator@_W@2@@std@@V?$allocator@V?$basic_string@_WU?$char_traits@_W@std@@V?$allocator@_W@2@@std@@@2@$00@std@@QAE@IPBV_Container_base_aux@1@@Z PROC ; std::_Deque_const_iterator<std::basic_string<wchar_t,std::char_traits<wchar_t>,std::allocator<wchar_t> >,std::allocator<std::basic_string<wchar_t,std::char_traits<wchar_t>,std::allocator<wchar_t> > >,1>::_Deque_const_iterator<std::basic_string<wchar_t,std::char_traits<wchar_t>,std::allocator<wchar_t> >,std::allocator<std::basic_string<wchar_t,std::char_traits<wchar_t>,std::allocator<wchar_t> > >,1>, COMDAT
; _this$ = edi
; __Pdeque$ = esi

; 125  : 		_Deque_const_iterator(size_type _Off, const _Mydequebase *_Pdeque)

	push	ebx
	mov	ebx, DWORD PTR __Off$[esp]
	mov	DWORD PTR [edi], 0

; 126  : 			{	// construct with offset _Off in *_Pdeque
; 127  : 			_SCL_SECURE_TRAITS_VALIDATE(
; 128  : 				_Pdeque != NULL &&
; 129  : 				((_Mydeque *)_Pdeque)->_Myoff <= _Off && _Off <= (((_Mydeque *)_Pdeque)->_Myoff + ((_Mydeque *)_Pdeque)->_Mysize));

	test	esi, esi
	je	SHORT $LN4@Deque_cons
	mov	eax, DWORD PTR [esi+24]
	cmp	eax, ebx
	ja	SHORT $LN4@Deque_cons
	mov	ecx, DWORD PTR [esi+28]
	add	ecx, eax
	cmp	ebx, ecx
	jbe	SHORT $LN3@Deque_cons
$LN4@Deque_cons:
	call	DWORD PTR __imp___invalid_parameter_noinfo
$LN3@Deque_cons:

; 130  : 				
; 131  : 			this->_Set_container(_Pdeque);

	mov	edx, DWORD PTR [esi]

; 132  : 			_Myoff = _Off;

	mov	DWORD PTR [edi+4], ebx
	mov	DWORD PTR [edi], edx

; 133  : 			}

	mov	eax, edi
	pop	ebx
	ret	4
??0?$_Deque_const_iterator@V?$basic_string@_WU?$char_traits@_W@std@@V?$allocator@_W@2@@std@@V?$allocator@V?$basic_string@_WU?$char_traits@_W@std@@V?$allocator@_W@2@@std@@@2@$00@std@@QAE@IPBV_Container_base_aux@1@@Z ENDP ; std::_Deque_const_iterator<std::basic_string<wchar_t,std::char_traits<wchar_t>,std::allocator<wchar_t> >,std::allocator<std::basic_string<wchar_t,std::char_traits<wchar_t>,std::allocator<wchar_t> > >,1>::_Deque_const_iterator<std::basic_string<wchar_t,std::char_traits<wchar_t>,std::allocator<wchar_t> >,std::allocator<std::basic_string<wchar_t,std::char_traits<wchar_t>,std::allocator<wchar_t> > >,1>
; Function compile flags: /Ogtpy
_TEXT	ENDS
;	COMDAT ??0?$_Deque_const_iterator@_WV?$allocator@_W@std@@$00@std@@QAE@IPBV_Container_base_aux@1@@Z
_TEXT	SEGMENT
__Off$ = 8						; size = 4
??0?$_Deque_const_iterator@_WV?$allocator@_W@std@@$00@std@@QAE@IPBV_Container_base_aux@1@@Z PROC ; std::_Deque_const_iterator<wchar_t,std::allocator<wchar_t>,1>::_Deque_const_iterator<wchar_t,std::allocator<wchar_t>,1>, COMDAT
; _this$ = edi
; __Pdeque$ = esi

; 125  : 		_Deque_const_iterator(size_type _Off, const _Mydequebase *_Pdeque)

	push	ebx
	mov	ebx, DWORD PTR __Off$[esp]
	mov	DWORD PTR [edi], 0

; 126  : 			{	// construct with offset _Off in *_Pdeque
; 127  : 			_SCL_SECURE_TRAITS_VALIDATE(
; 128  : 				_Pdeque != NULL &&
; 129  : 				((_Mydeque *)_Pdeque)->_Myoff <= _Off && _Off <= (((_Mydeque *)_Pdeque)->_Myoff + ((_Mydeque *)_Pdeque)->_Mysize));

	test	esi, esi
	je	SHORT $LN4@Deque_cons@2
	mov	eax, DWORD PTR [esi+24]
	cmp	eax, ebx
	ja	SHORT $LN4@Deque_cons@2
	mov	ecx, DWORD PTR [esi+28]
	add	ecx, eax
	cmp	ebx, ecx
	jbe	SHORT $LN3@Deque_cons@2
$LN4@Deque_cons@2:
	call	DWORD PTR __imp___invalid_parameter_noinfo
$LN3@Deque_cons@2:

; 130  : 				
; 131  : 			this->_Set_container(_Pdeque);

	mov	edx, DWORD PTR [esi]

; 132  : 			_Myoff = _Off;

	mov	DWORD PTR [edi+4], ebx
	mov	DWORD PTR [edi], edx

; 133  : 			}

	mov	eax, edi
	pop	ebx
	ret	4
??0?$_Deque_const_iterator@_WV?$allocator@_W@std@@$00@std@@QAE@IPBV_Container_base_aux@1@@Z ENDP ; std::_Deque_const_iterator<wchar_t,std::allocator<wchar_t>,1>::_Deque_const_iterator<wchar_t,std::allocator<wchar_t>,1>
; Function compile flags: /Ogtpy
_TEXT	ENDS
;	COMDAT ??0?$_Deque_iterator@V?$basic_string@_WU?$char_traits@_W@std@@V?$allocator@_W@2@@std@@V?$allocator@V?$basic_string@_WU?$char_traits@_W@std@@V?$allocator@_W@2@@std@@@2@$00@std@@QAE@IPBV_Container_base_aux@1@@Z
_TEXT	SEGMENT
__Off$ = 8						; size = 4
??0?$_Deque_iterator@V?$basic_string@_WU?$char_traits@_W@std@@V?$allocator@_W@2@@std@@V?$allocator@V?$basic_string@_WU?$char_traits@_W@std@@V?$allocator@_W@2@@std@@@2@$00@std@@QAE@IPBV_Container_base_aux@1@@Z PROC ; std::_Deque_iterator<std::basic_string<wchar_t,std::char_traits<wchar_t>,std::allocator<wchar_t> >,std::allocator<std::basic_string<wchar_t,std::char_traits<wchar_t>,std::allocator<wchar_t> > >,1>::_Deque_iterator<std::basic_string<wchar_t,std::char_traits<wchar_t>,std::allocator<wchar_t> >,std::allocator<std::basic_string<wchar_t,std::char_traits<wchar_t>,std::allocator<wchar_t> > >,1>, COMDAT
; _this$ = edi
; __Pdeque$ = esi

; 381  : 		{	// construct with offset _Off in *_Pdeque

	push	ebx
	mov	ebx, DWORD PTR __Off$[esp]
	mov	DWORD PTR [edi], 0
	test	esi, esi
	je	SHORT $LN6@Deque_iter
	mov	eax, DWORD PTR [esi+24]
	cmp	eax, ebx
	ja	SHORT $LN6@Deque_iter
	mov	ecx, DWORD PTR [esi+28]
	add	ecx, eax
	cmp	ebx, ecx
	jbe	SHORT $LN5@Deque_iter
$LN6@Deque_iter:
	call	DWORD PTR __imp___invalid_parameter_noinfo
$LN5@Deque_iter:
	mov	edx, DWORD PTR [esi]
	mov	DWORD PTR [edi+4], ebx
	mov	DWORD PTR [edi], edx

; 382  : 		}

	mov	eax, edi
	pop	ebx
	ret	4
??0?$_Deque_iterator@V?$basic_string@_WU?$char_traits@_W@std@@V?$allocator@_W@2@@std@@V?$allocator@V?$basic_string@_WU?$char_traits@_W@std@@V?$allocator@_W@2@@std@@@2@$00@std@@QAE@IPBV_Container_base_aux@1@@Z ENDP ; std::_Deque_iterator<std::basic_string<wchar_t,std::char_traits<wchar_t>,std::allocator<wchar_t> >,std::allocator<std::basic_string<wchar_t,std::char_traits<wchar_t>,std::allocator<wchar_t> > >,1>::_Deque_iterator<std::basic_string<wchar_t,std::char_traits<wchar_t>,std::allocator<wchar_t> >,std::allocator<std::basic_string<wchar_t,std::char_traits<wchar_t>,std::allocator<wchar_t> > >,1>
; Function compile flags: /Ogtpy
_TEXT	ENDS
;	COMDAT ??0?$_Deque_iterator@_WV?$allocator@_W@std@@$00@std@@QAE@IPBV_Container_base_aux@1@@Z
_TEXT	SEGMENT
__Off$ = 8						; size = 4
??0?$_Deque_iterator@_WV?$allocator@_W@std@@$00@std@@QAE@IPBV_Container_base_aux@1@@Z PROC ; std::_Deque_iterator<wchar_t,std::allocator<wchar_t>,1>::_Deque_iterator<wchar_t,std::allocator<wchar_t>,1>, COMDAT
; _this$ = edi
; __Pdeque$ = esi

; 381  : 		{	// construct with offset _Off in *_Pdeque

	push	ebx
	mov	ebx, DWORD PTR __Off$[esp]
	mov	DWORD PTR [edi], 0
	test	esi, esi
	je	SHORT $LN6@Deque_iter@2
	mov	eax, DWORD PTR [esi+24]
	cmp	eax, ebx
	ja	SHORT $LN6@Deque_iter@2
	mov	ecx, DWORD PTR [esi+28]
	add	ecx, eax
	cmp	ebx, ecx
	jbe	SHORT $LN5@Deque_iter@2
$LN6@Deque_iter@2:
	call	DWORD PTR __imp___invalid_parameter_noinfo
$LN5@Deque_iter@2:
	mov	edx, DWORD PTR [esi]
	mov	DWORD PTR [edi+4], ebx
	mov	DWORD PTR [edi], edx

; 382  : 		}

	mov	eax, edi
	pop	ebx
	ret	4
??0?$_Deque_iterator@_WV?$allocator@_W@std@@$00@std@@QAE@IPBV_Container_base_aux@1@@Z ENDP ; std::_Deque_iterator<wchar_t,std::allocator<wchar_t>,1>::_Deque_iterator<wchar_t,std::allocator<wchar_t>,1>
; Function compile flags: /Ogtpy
; File c:\program files (x86)\microsoft visual studio 9.0\vc\include\xmemory
_TEXT	ENDS
;	COMDAT ?allocate@?$allocator@PAV?$basic_string@_WU?$char_traits@_W@std@@V?$allocator@_W@2@@std@@@std@@QAEPAPAV?$basic_string@_WU?$char_traits@_W@std@@V?$allocator@_W@2@@2@I@Z
_TEXT	SEGMENT
$T123782 = -16						; size = 4
$T123788 = -12						; size = 12
?allocate@?$allocator@PAV?$basic_string@_WU?$char_traits@_W@std@@V?$allocator@_W@2@@std@@@std@@QAEPAPAV?$basic_string@_WU?$char_traits@_W@std@@V?$allocator@_W@2@@2@I@Z PROC ; std::allocator<std::basic_string<wchar_t,std::char_traits<wchar_t>,std::allocator<wchar_t> > *>::allocate, COMDAT
; __Count$ = ecx

; 144  : 		{	// allocate array of _Count elements

	sub	esp, 16					; 00000010H

; 145  : 		return (_Allocate(_Count, (pointer)0));

	test	ecx, ecx
	ja	SHORT $LN5@allocate
	xor	ecx, ecx
$LN3@allocate:
	lea	edx, DWORD PTR [ecx*4]
	push	edx
	call	??2@YAPAXI@Z				; operator new
	add	esp, 4

; 146  : 		}

	add	esp, 16					; 00000010H
	ret	0

; 145  : 		return (_Allocate(_Count, (pointer)0));

$LN5@allocate:
	or	eax, -1
	xor	edx, edx
	div	ecx
	cmp	eax, 4
	jae	SHORT $LN3@allocate
	lea	eax, DWORD PTR $T123782[esp+16]
	push	eax
	lea	ecx, DWORD PTR $T123788[esp+20]
	mov	DWORD PTR $T123782[esp+20], 0
	call	DWORD PTR __imp_??0exception@std@@QAE@ABQBD@Z
	push	OFFSET __TI2?AVbad_alloc@std@@
	lea	ecx, DWORD PTR $T123788[esp+20]
	push	ecx
	mov	DWORD PTR $T123788[esp+24], OFFSET ??_7bad_alloc@std@@6B@
	call	__CxxThrowException@8
$LN12@allocate:
$LN11@allocate:
	int	3
?allocate@?$allocator@PAV?$basic_string@_WU?$char_traits@_W@std@@V?$allocator@_W@2@@std@@@std@@QAEPAPAV?$basic_string@_WU?$char_traits@_W@std@@V?$allocator@_W@2@@2@I@Z ENDP ; std::allocator<std::basic_string<wchar_t,std::char_traits<wchar_t>,std::allocator<wchar_t> > *>::allocate
; Function compile flags: /Ogtpy
_TEXT	ENDS
;	COMDAT ?allocate@?$allocator@PA_W@std@@QAEPAPA_WI@Z
_TEXT	SEGMENT
$T123804 = -16						; size = 4
$T123810 = -12						; size = 12
?allocate@?$allocator@PA_W@std@@QAEPAPA_WI@Z PROC	; std::allocator<wchar_t *>::allocate, COMDAT
; __Count$ = ecx

; 144  : 		{	// allocate array of _Count elements

	sub	esp, 16					; 00000010H

; 145  : 		return (_Allocate(_Count, (pointer)0));

	test	ecx, ecx
	ja	SHORT $LN5@allocate@2
	xor	ecx, ecx
$LN3@allocate@2:
	lea	edx, DWORD PTR [ecx*4]
	push	edx
	call	??2@YAPAXI@Z				; operator new
	add	esp, 4

; 146  : 		}

	add	esp, 16					; 00000010H
	ret	0

; 145  : 		return (_Allocate(_Count, (pointer)0));

$LN5@allocate@2:
	or	eax, -1
	xor	edx, edx
	div	ecx
	cmp	eax, 4
	jae	SHORT $LN3@allocate@2
	lea	eax, DWORD PTR $T123804[esp+16]
	push	eax
	lea	ecx, DWORD PTR $T123810[esp+20]
	mov	DWORD PTR $T123804[esp+20], 0
	call	DWORD PTR __imp_??0exception@std@@QAE@ABQBD@Z
	push	OFFSET __TI2?AVbad_alloc@std@@
	lea	ecx, DWORD PTR $T123810[esp+20]
	push	ecx
	mov	DWORD PTR $T123810[esp+24], OFFSET ??_7bad_alloc@std@@6B@
	call	__CxxThrowException@8
$LN12@allocate@2:
$LN11@allocate@2:
	int	3
?allocate@?$allocator@PA_W@std@@QAEPAPA_WI@Z ENDP	; std::allocator<wchar_t *>::allocate
_TEXT	ENDS
;	COMDAT xdata$x
; File c:\program files (x86)\microsoft visual studio 9.0\vc\include\new
xdata$x	SEGMENT
__unwindtable$?construct@?$allocator@V?$basic_string@_WU?$char_traits@_W@std@@V?$allocator@_W@2@@std@@@std@@QAEXPAV?$basic_string@_WU?$char_traits@_W@std@@V?$allocator@_W@2@@2@ABV32@@Z DD 0ffffffffH
	DD	FLAT:__unwindfunclet$?construct@?$allocator@V?$basic_string@_WU?$char_traits@_W@std@@V?$allocator@_W@2@@std@@@std@@QAEXPAV?$basic_string@_WU?$char_traits@_W@std@@V?$allocator@_W@2@@2@ABV32@@Z$0
__ehfuncinfo$?construct@?$allocator@V?$basic_string@_WU?$char_traits@_W@std@@V?$allocator@_W@2@@std@@@std@@QAEXPAV?$basic_string@_WU?$char_traits@_W@std@@V?$allocator@_W@2@@2@ABV32@@Z DD 019930522H
	DD	01H
	DD	FLAT:__unwindtable$?construct@?$allocator@V?$basic_string@_WU?$char_traits@_W@std@@V?$allocator@_W@2@@std@@@std@@QAEXPAV?$basic_string@_WU?$char_traits@_W@std@@V?$allocator@_W@2@@2@ABV32@@Z
	DD	2 DUP(00H)
	DD	2 DUP(00H)
	DD	00H
	DD	01H
; Function compile flags: /Ogtpy
; File c:\program files (x86)\microsoft visual studio 9.0\vc\include\xmemory
xdata$x	ENDS
;	COMDAT ?construct@?$allocator@V?$basic_string@_WU?$char_traits@_W@std@@V?$allocator@_W@2@@std@@@std@@QAEXPAV?$basic_string@_WU?$char_traits@_W@std@@V?$allocator@_W@2@@2@ABV32@@Z
_TEXT	SEGMENT
__$EHRec$ = -12						; size = 12
__Val$ = 8						; size = 4
?construct@?$allocator@V?$basic_string@_WU?$char_traits@_W@std@@V?$allocator@_W@2@@std@@@std@@QAEXPAV?$basic_string@_WU?$char_traits@_W@std@@V?$allocator@_W@2@@2@ABV32@@Z PROC ; std::allocator<std::basic_string<wchar_t,std::char_traits<wchar_t>,std::allocator<wchar_t> > >::construct, COMDAT
; __Ptr$ = ecx

; 154  : 		{	// construct object at _Ptr with value _Val

	mov	eax, DWORD PTR fs:0
	push	-1
	push	__ehhandler$?construct@?$allocator@V?$basic_string@_WU?$char_traits@_W@std@@V?$allocator@_W@2@@std@@@std@@QAEXPAV?$basic_string@_WU?$char_traits@_W@std@@V?$allocator@_W@2@@2@ABV32@@Z
	push	eax
	mov	DWORD PTR fs:0, esp

; 155  : 		_Construct(_Ptr, _Val);

	mov	DWORD PTR __$EHRec$[esp+20], 0
	test	ecx, ecx
	je	SHORT $LN5@construct
	mov	eax, DWORD PTR __Val$[esp+8]
	push	eax
	call	DWORD PTR __imp_??0?$basic_string@_WU?$char_traits@_W@std@@V?$allocator@_W@2@@std@@QAE@ABV01@@Z
$LN5@construct:

; 156  : 		}

	mov	ecx, DWORD PTR __$EHRec$[esp+12]
	mov	DWORD PTR fs:0, ecx
	add	esp, 12					; 0000000cH
	ret	4
_TEXT	ENDS
;	COMDAT text$x
text$x	SEGMENT
__unwindfunclet$?construct@?$allocator@V?$basic_string@_WU?$char_traits@_W@std@@V?$allocator@_W@2@@std@@@std@@QAEXPAV?$basic_string@_WU?$char_traits@_W@std@@V?$allocator@_W@2@@2@ABV32@@Z$0:
	jmp	??3@YAXPAX0@Z				; operator delete
__ehhandler$?construct@?$allocator@V?$basic_string@_WU?$char_traits@_W@std@@V?$allocator@_W@2@@std@@@std@@QAEXPAV?$basic_string@_WU?$char_traits@_W@std@@V?$allocator@_W@2@@2@ABV32@@Z:
	mov	eax, OFFSET __ehfuncinfo$?construct@?$allocator@V?$basic_string@_WU?$char_traits@_W@std@@V?$allocator@_W@2@@std@@@std@@QAEXPAV?$basic_string@_WU?$char_traits@_W@std@@V?$allocator@_W@2@@2@ABV32@@Z
	jmp	___CxxFrameHandler3
text$x	ENDS
?construct@?$allocator@V?$basic_string@_WU?$char_traits@_W@std@@V?$allocator@_W@2@@std@@@std@@QAEXPAV?$basic_string@_WU?$char_traits@_W@std@@V?$allocator@_W@2@@2@ABV32@@Z ENDP ; std::allocator<std::basic_string<wchar_t,std::char_traits<wchar_t>,std::allocator<wchar_t> > >::construct
; Function compile flags: /Ogtpy
;	COMDAT ?allocate@?$allocator@V?$basic_string@_WU?$char_traits@_W@std@@V?$allocator@_W@2@@std@@@std@@QAEPAV?$basic_string@_WU?$char_traits@_W@std@@V?$allocator@_W@2@@2@I@Z
_TEXT	SEGMENT
?allocate@?$allocator@V?$basic_string@_WU?$char_traits@_W@std@@V?$allocator@_W@2@@std@@@std@@QAEPAV?$basic_string@_WU?$char_traits@_W@std@@V?$allocator@_W@2@@2@I@Z PROC ; std::allocator<std::basic_string<wchar_t,std::char_traits<wchar_t>,std::allocator<wchar_t> > >::allocate, COMDAT

; 145  : 		return (_Allocate(_Count, (pointer)0));

	mov	ecx, 1
	jmp	??$_Allocate@V?$basic_string@_WU?$char_traits@_W@std@@V?$allocator@_W@2@@std@@@std@@YAPAV?$basic_string@_WU?$char_traits@_W@std@@V?$allocator@_W@2@@0@IPAV10@@Z ; std::_Allocate<std::basic_string<wchar_t,std::char_traits<wchar_t>,std::allocator<wchar_t> > >
?allocate@?$allocator@V?$basic_string@_WU?$char_traits@_W@std@@V?$allocator@_W@2@@std@@@std@@QAEPAV?$basic_string@_WU?$char_traits@_W@std@@V?$allocator@_W@2@@2@I@Z ENDP ; std::allocator<std::basic_string<wchar_t,std::char_traits<wchar_t>,std::allocator<wchar_t> > >::allocate
; Function compile flags: /Ogtpy
; File c:\program files (x86)\microsoft visual studio 9.0\vc\include\deque
_TEXT	ENDS
;	COMDAT ?end@?$deque@V?$basic_string@_WU?$char_traits@_W@std@@V?$allocator@_W@2@@std@@V?$allocator@V?$basic_string@_WU?$char_traits@_W@std@@V?$allocator@_W@2@@std@@@2@@std@@QAE?AV?$_Deque_iterator@V?$basic_string@_WU?$char_traits@_W@std@@V?$allocator@_W@2@@std@@V?$allocator@V?$basic_string@_WU?$char_traits@_W@std@@V?$allocator@_W@2@@std@@@2@$00@2@XZ
_TEXT	SEGMENT
_this$ = 8						; size = 4
?end@?$deque@V?$basic_string@_WU?$char_traits@_W@std@@V?$allocator@_W@2@@std@@V?$allocator@V?$basic_string@_WU?$char_traits@_W@std@@V?$allocator@_W@2@@std@@@2@@std@@QAE?AV?$_Deque_iterator@V?$basic_string@_WU?$char_traits@_W@std@@V?$allocator@_W@2@@std@@V?$allocator@V?$basic_string@_WU?$char_traits@_W@std@@V?$allocator@_W@2@@std@@@2@$00@2@XZ PROC ; std::deque<std::basic_string<wchar_t,std::char_traits<wchar_t>,std::allocator<wchar_t> >,std::allocator<std::basic_string<wchar_t,std::char_traits<wchar_t>,std::allocator<wchar_t> > > >::end, COMDAT
; ___$ReturnUdt$ = edi

; 675  : 		{	// return iterator for end of mutable sequence

	push	ebx
	mov	ebx, DWORD PTR _this$[esp]

; 676  : 		return (iterator(_Myoff + _Mysize, this));

	mov	eax, DWORD PTR [ebx+24]
	push	esi
	mov	esi, DWORD PTR [ebx+28]
	add	esi, eax
	mov	DWORD PTR [edi], 0
	cmp	eax, esi
	jbe	SHORT $LN7@end
	call	DWORD PTR __imp___invalid_parameter_noinfo
$LN7@end:
	mov	eax, DWORD PTR [ebx]
	mov	DWORD PTR [edi+4], esi
	pop	esi
	mov	DWORD PTR [edi], eax
	mov	eax, edi
	pop	ebx

; 677  : 		}

	ret	4
?end@?$deque@V?$basic_string@_WU?$char_traits@_W@std@@V?$allocator@_W@2@@std@@V?$allocator@V?$basic_string@_WU?$char_traits@_W@std@@V?$allocator@_W@2@@std@@@2@@std@@QAE?AV?$_Deque_iterator@V?$basic_string@_WU?$char_traits@_W@std@@V?$allocator@_W@2@@std@@V?$allocator@V?$basic_string@_WU?$char_traits@_W@std@@V?$allocator@_W@2@@std@@@2@$00@2@XZ ENDP ; std::deque<std::basic_string<wchar_t,std::char_traits<wchar_t>,std::allocator<wchar_t> >,std::allocator<std::basic_string<wchar_t,std::char_traits<wchar_t>,std::allocator<wchar_t> > > >::end
; Function compile flags: /Ogtpy
_TEXT	ENDS
;	COMDAT ?end@?$deque@_WV?$allocator@_W@std@@@std@@QAE?AV?$_Deque_iterator@_WV?$allocator@_W@std@@$00@2@XZ
_TEXT	SEGMENT
_this$ = 8						; size = 4
?end@?$deque@_WV?$allocator@_W@std@@@std@@QAE?AV?$_Deque_iterator@_WV?$allocator@_W@std@@$00@2@XZ PROC ; std::deque<wchar_t,std::allocator<wchar_t> >::end, COMDAT
; ___$ReturnUdt$ = edi

; 675  : 		{	// return iterator for end of mutable sequence

	push	ebx
	mov	ebx, DWORD PTR _this$[esp]

; 676  : 		return (iterator(_Myoff + _Mysize, this));

	mov	eax, DWORD PTR [ebx+24]
	push	esi
	mov	esi, DWORD PTR [ebx+28]
	add	esi, eax
	mov	DWORD PTR [edi], 0
	cmp	eax, esi
	jbe	SHORT $LN7@end@2
	call	DWORD PTR __imp___invalid_parameter_noinfo
$LN7@end@2:
	mov	eax, DWORD PTR [ebx]
	mov	DWORD PTR [edi+4], esi
	pop	esi
	mov	DWORD PTR [edi], eax
	mov	eax, edi
	pop	ebx

; 677  : 		}

	ret	4
?end@?$deque@_WV?$allocator@_W@std@@@std@@QAE?AV?$_Deque_iterator@_WV?$allocator@_W@std@@$00@2@XZ ENDP ; std::deque<wchar_t,std::allocator<wchar_t> >::end
; Function compile flags: /Ogtpy
; File c:\program files (x86)\microsoft visual studio 9.0\vc\include\xutility
_TEXT	ENDS
;	COMDAT ??1?$_Container_base_aux_alloc_real@V?$allocator@V?$basic_string@_WU?$char_traits@_W@std@@V?$allocator@_W@2@@std@@@std@@@std@@IAE@XZ
_TEXT	SEGMENT
??1?$_Container_base_aux_alloc_real@V?$allocator@V?$basic_string@_WU?$char_traits@_W@std@@V?$allocator@_W@2@@std@@@std@@@std@@IAE@XZ PROC ; std::_Container_base_aux_alloc_real<std::allocator<std::basic_string<wchar_t,std::char_traits<wchar_t>,std::allocator<wchar_t> > > >::~_Container_base_aux_alloc_real<std::allocator<std::basic_string<wchar_t,std::char_traits<wchar_t>,std::allocator<wchar_t> > > >, COMDAT
; _this$ = eax

; 437  : 		_Myownedaux->~_Aux_cont();
; 438  : 
; 439  : 		_Alaux.deallocate(_Myownedaux, 1);

	mov	ecx, DWORD PTR [eax]
	push	ecx
	call	??3@YAXPAX@Z				; operator delete
	pop	ecx

; 440  : 		}

	ret	0
??1?$_Container_base_aux_alloc_real@V?$allocator@V?$basic_string@_WU?$char_traits@_W@std@@V?$allocator@_W@2@@std@@@std@@@std@@IAE@XZ ENDP ; std::_Container_base_aux_alloc_real<std::allocator<std::basic_string<wchar_t,std::char_traits<wchar_t>,std::allocator<wchar_t> > > >::~_Container_base_aux_alloc_real<std::allocator<std::basic_string<wchar_t,std::char_traits<wchar_t>,std::allocator<wchar_t> > > >
; Function compile flags: /Ogtpy
; File c:\program files (x86)\microsoft visual studio 9.0\vc\include\deque
_TEXT	ENDS
;	COMDAT ?pop_back@?$deque@V?$basic_string@_WU?$char_traits@_W@std@@V?$allocator@_W@2@@std@@V?$allocator@V?$basic_string@_WU?$char_traits@_W@std@@V?$allocator@_W@2@@std@@@2@@std@@QAEXXZ
_TEXT	SEGMENT
?pop_back@?$deque@V?$basic_string@_WU?$char_traits@_W@std@@V?$allocator@_W@2@@std@@V?$allocator@V?$basic_string@_WU?$char_traits@_W@std@@V?$allocator@_W@2@@std@@@2@@std@@QAEXXZ PROC ; std::deque<std::basic_string<wchar_t,std::char_traits<wchar_t>,std::allocator<wchar_t> >,std::allocator<std::basic_string<wchar_t,std::char_traits<wchar_t>,std::allocator<wchar_t> > > >::pop_back, COMDAT
; _this$ = esi

; 864  : 
; 865  :  #if _HAS_ITERATOR_DEBUGGING
; 866  : 		if (empty())
; 867  : 			_DEBUG_ERROR("deque empty before pop");
; 868  : 		else
; 869  : 			{	// something to erase, do it
; 870  : 			_Orphan_off(_Myoff + _Mysize - 1);
; 871  : 
; 872  :  #else /* _HAS_ITERATOR_DEBUGGING */
; 873  : 		if (!empty())

	mov	eax, DWORD PTR [esi+28]
	test	eax, eax
	je	SHORT $LN1@pop_back

; 874  : 			{	// something to erase, do it
; 875  :  #endif /* _HAS_ITERATOR_DEBUGGING */
; 876  : 
; 877  : 			size_type _Newoff = _Mysize + _Myoff - 1;
; 878  : 			size_type _Block = _Newoff / _DEQUESIZ;

	mov	ecx, DWORD PTR [esi+24]
	lea	eax, DWORD PTR [eax+ecx-1]

; 879  : 			if (_Mapsize <= _Block)

	mov	ecx, DWORD PTR [esi+20]
	cmp	ecx, eax
	ja	SHORT $LN2@pop_back

; 880  : 				_Block -= _Mapsize;

	sub	eax, ecx
$LN2@pop_back:

; 881  : 			this->_Alval.destroy(_Map[_Block] + _Newoff % _DEQUESIZ);

	mov	edx, DWORD PTR [esi+16]
	mov	ecx, DWORD PTR [edx+eax*4]
	call	DWORD PTR __imp_??1?$basic_string@_WU?$char_traits@_W@std@@V?$allocator@_W@2@@std@@QAE@XZ

; 882  : 			if (--_Mysize == 0)

	add	DWORD PTR [esi+28], -1
	jne	SHORT $LN1@pop_back

; 883  : 				_Myoff = 0;

	mov	DWORD PTR [esi+24], 0
$LN1@pop_back:

; 884  : 			}
; 885  : 			}

	ret	0
?pop_back@?$deque@V?$basic_string@_WU?$char_traits@_W@std@@V?$allocator@_W@2@@std@@V?$allocator@V?$basic_string@_WU?$char_traits@_W@std@@V?$allocator@_W@2@@std@@@2@@std@@QAEXXZ ENDP ; std::deque<std::basic_string<wchar_t,std::char_traits<wchar_t>,std::allocator<wchar_t> >,std::allocator<std::basic_string<wchar_t,std::char_traits<wchar_t>,std::allocator<wchar_t> > > >::pop_back
; Function compile flags: /Ogtpy
; File c:\program files (x86)\microsoft visual studio 9.0\vc\include\xutility
_TEXT	ENDS
;	COMDAT ??1?$_Container_base_aux_alloc_real@V?$allocator@_W@std@@@std@@IAE@XZ
_TEXT	SEGMENT
??1?$_Container_base_aux_alloc_real@V?$allocator@_W@std@@@std@@IAE@XZ PROC ; std::_Container_base_aux_alloc_real<std::allocator<wchar_t> >::~_Container_base_aux_alloc_real<std::allocator<wchar_t> >, COMDAT
; _this$ = eax

; 437  : 		_Myownedaux->~_Aux_cont();
; 438  : 
; 439  : 		_Alaux.deallocate(_Myownedaux, 1);

	mov	ecx, DWORD PTR [eax]
	push	ecx
	call	??3@YAXPAX@Z				; operator delete
	pop	ecx

; 440  : 		}

	ret	0
??1?$_Container_base_aux_alloc_real@V?$allocator@_W@std@@@std@@IAE@XZ ENDP ; std::_Container_base_aux_alloc_real<std::allocator<wchar_t> >::~_Container_base_aux_alloc_real<std::allocator<wchar_t> >
; Function compile flags: /Ogtpy
; File c:\program files (x86)\microsoft visual studio 9.0\vc\include\deque
_TEXT	ENDS
;	COMDAT ?pop_back@?$deque@_WV?$allocator@_W@std@@@std@@QAEXXZ
_TEXT	SEGMENT
?pop_back@?$deque@_WV?$allocator@_W@std@@@std@@QAEXXZ PROC ; std::deque<wchar_t,std::allocator<wchar_t> >::pop_back, COMDAT
; _this$ = esi

; 864  : 
; 865  :  #if _HAS_ITERATOR_DEBUGGING
; 866  : 		if (empty())
; 867  : 			_DEBUG_ERROR("deque empty before pop");
; 868  : 		else
; 869  : 			{	// something to erase, do it
; 870  : 			_Orphan_off(_Myoff + _Mysize - 1);
; 871  : 
; 872  :  #else /* _HAS_ITERATOR_DEBUGGING */
; 873  : 		if (!empty())

	mov	eax, DWORD PTR [esi+28]
	test	eax, eax
	je	SHORT $LN1@pop_back@2

; 874  : 			{	// something to erase, do it
; 875  :  #endif /* _HAS_ITERATOR_DEBUGGING */
; 876  : 
; 877  : 			size_type _Newoff = _Mysize + _Myoff - 1;

	mov	ecx, DWORD PTR [esi+24]

; 878  : 			size_type _Block = _Newoff / _DEQUESIZ;
; 879  : 			if (_Mapsize <= _Block)

	mov	edx, DWORD PTR [esi+20]
	lea	ecx, DWORD PTR [eax+ecx-1]
	mov	eax, ecx
	shr	eax, 3
	cmp	edx, eax
	ja	SHORT $LN2@pop_back@2

; 880  : 				_Block -= _Mapsize;

	sub	eax, edx
$LN2@pop_back@2:

; 881  : 			this->_Alval.destroy(_Map[_Block] + _Newoff % _DEQUESIZ);

	mov	edx, DWORD PTR [esi+16]
	mov	eax, DWORD PTR [edx+eax*4]
	and	ecx, 7
	lea	ecx, DWORD PTR [eax+ecx*2]
	push	ecx
	lea	ecx, DWORD PTR [esi+12]
	call	DWORD PTR __imp_?destroy@?$allocator@_W@std@@QAEXPA_W@Z

; 882  : 			if (--_Mysize == 0)

	add	DWORD PTR [esi+28], -1
	jne	SHORT $LN1@pop_back@2

; 883  : 				_Myoff = 0;

	mov	DWORD PTR [esi+24], 0
$LN1@pop_back@2:

; 884  : 			}
; 885  : 			}

	ret	0
?pop_back@?$deque@_WV?$allocator@_W@std@@@std@@QAEXXZ ENDP ; std::deque<wchar_t,std::allocator<wchar_t> >::pop_back
; Function compile flags: /Ogtpy
_TEXT	ENDS
;	COMDAT ??1?$_Deque_map@V?$basic_string@_WU?$char_traits@_W@std@@V?$allocator@_W@2@@std@@V?$allocator@V?$basic_string@_WU?$char_traits@_W@std@@V?$allocator@_W@2@@std@@@2@@std@@QAE@XZ
_TEXT	SEGMENT
??1?$_Deque_map@V?$basic_string@_WU?$char_traits@_W@std@@V?$allocator@_W@2@@std@@V?$allocator@V?$basic_string@_WU?$char_traits@_W@std@@V?$allocator@_W@2@@std@@@2@@std@@QAE@XZ PROC ; std::_Deque_map<std::basic_string<wchar_t,std::char_traits<wchar_t>,std::allocator<wchar_t> >,std::allocator<std::basic_string<wchar_t,std::char_traits<wchar_t>,std::allocator<wchar_t> > > >::~_Deque_map<std::basic_string<wchar_t,std::char_traits<wchar_t>,std::allocator<wchar_t> >,std::allocator<std::basic_string<wchar_t,std::char_traits<wchar_t>,std::allocator<wchar_t> > > >, COMDAT
; _this$ = eax
	mov	ecx, DWORD PTR [eax]
	push	ecx
	call	??3@YAXPAX@Z				; operator delete
	pop	ecx
	ret	0
??1?$_Deque_map@V?$basic_string@_WU?$char_traits@_W@std@@V?$allocator@_W@2@@std@@V?$allocator@V?$basic_string@_WU?$char_traits@_W@std@@V?$allocator@_W@2@@std@@@2@@std@@QAE@XZ ENDP ; std::_Deque_map<std::basic_string<wchar_t,std::char_traits<wchar_t>,std::allocator<wchar_t> >,std::allocator<std::basic_string<wchar_t,std::char_traits<wchar_t>,std::allocator<wchar_t> > > >::~_Deque_map<std::basic_string<wchar_t,std::char_traits<wchar_t>,std::allocator<wchar_t> >,std::allocator<std::basic_string<wchar_t,std::char_traits<wchar_t>,std::allocator<wchar_t> > > >
; Function compile flags: /Ogtpy
_TEXT	ENDS
;	COMDAT ??1?$_Deque_map@_WV?$allocator@_W@std@@@std@@QAE@XZ
_TEXT	SEGMENT
??1?$_Deque_map@_WV?$allocator@_W@std@@@std@@QAE@XZ PROC ; std::_Deque_map<wchar_t,std::allocator<wchar_t> >::~_Deque_map<wchar_t,std::allocator<wchar_t> >, COMDAT
; _this$ = eax
	mov	ecx, DWORD PTR [eax]
	push	ecx
	call	??3@YAXPAX@Z				; operator delete
	pop	ecx
	ret	0
??1?$_Deque_map@_WV?$allocator@_W@std@@@std@@QAE@XZ ENDP ; std::_Deque_map<wchar_t,std::allocator<wchar_t> >::~_Deque_map<wchar_t,std::allocator<wchar_t> >
; Function compile flags: /Ogtpy
_TEXT	ENDS
;	COMDAT ??1?$_Deque_val@V?$basic_string@_WU?$char_traits@_W@std@@V?$allocator@_W@2@@std@@V?$allocator@V?$basic_string@_WU?$char_traits@_W@std@@V?$allocator@_W@2@@std@@@2@@std@@QAE@XZ
_TEXT	SEGMENT
??1?$_Deque_val@V?$basic_string@_WU?$char_traits@_W@std@@V?$allocator@_W@2@@std@@V?$allocator@V?$basic_string@_WU?$char_traits@_W@std@@V?$allocator@_W@2@@std@@@2@@std@@QAE@XZ PROC ; std::_Deque_val<std::basic_string<wchar_t,std::char_traits<wchar_t>,std::allocator<wchar_t> >,std::allocator<std::basic_string<wchar_t,std::char_traits<wchar_t>,std::allocator<wchar_t> > > >::~_Deque_val<std::basic_string<wchar_t,std::char_traits<wchar_t>,std::allocator<wchar_t> >,std::allocator<std::basic_string<wchar_t,std::char_traits<wchar_t>,std::allocator<wchar_t> > > >, COMDAT
; _this$ = eax
	mov	ecx, DWORD PTR [eax]
	push	ecx
	call	??3@YAXPAX@Z				; operator delete
	pop	ecx
	ret	0
??1?$_Deque_val@V?$basic_string@_WU?$char_traits@_W@std@@V?$allocator@_W@2@@std@@V?$allocator@V?$basic_string@_WU?$char_traits@_W@std@@V?$allocator@_W@2@@std@@@2@@std@@QAE@XZ ENDP ; std::_Deque_val<std::basic_string<wchar_t,std::char_traits<wchar_t>,std::allocator<wchar_t> >,std::allocator<std::basic_string<wchar_t,std::char_traits<wchar_t>,std::allocator<wchar_t> > > >::~_Deque_val<std::basic_string<wchar_t,std::char_traits<wchar_t>,std::allocator<wchar_t> >,std::allocator<std::basic_string<wchar_t,std::char_traits<wchar_t>,std::allocator<wchar_t> > > >
; Function compile flags: /Ogtpy
_TEXT	ENDS
;	COMDAT ??1?$_Deque_val@_WV?$allocator@_W@std@@@std@@QAE@XZ
_TEXT	SEGMENT
??1?$_Deque_val@_WV?$allocator@_W@std@@@std@@QAE@XZ PROC ; std::_Deque_val<wchar_t,std::allocator<wchar_t> >::~_Deque_val<wchar_t,std::allocator<wchar_t> >, COMDAT
; _this$ = eax
	mov	ecx, DWORD PTR [eax]
	push	ecx
	call	??3@YAXPAX@Z				; operator delete
	pop	ecx
	ret	0
??1?$_Deque_val@_WV?$allocator@_W@std@@@std@@QAE@XZ ENDP ; std::_Deque_val<wchar_t,std::allocator<wchar_t> >::~_Deque_val<wchar_t,std::allocator<wchar_t> >
; Function compile flags: /Ogtpy
; File c:\program files (x86)\microsoft visual studio 9.0\vc\include\stack
_TEXT	ENDS
;	COMDAT ?pop@?$stack@V?$basic_string@_WU?$char_traits@_W@std@@V?$allocator@_W@2@@std@@V?$deque@V?$basic_string@_WU?$char_traits@_W@std@@V?$allocator@_W@2@@std@@V?$allocator@V?$basic_string@_WU?$char_traits@_W@std@@V?$allocator@_W@2@@std@@@2@@2@@std@@QAEXXZ
_TEXT	SEGMENT
?pop@?$stack@V?$basic_string@_WU?$char_traits@_W@std@@V?$allocator@_W@2@@std@@V?$deque@V?$basic_string@_WU?$char_traits@_W@std@@V?$allocator@_W@2@@std@@V?$allocator@V?$basic_string@_WU?$char_traits@_W@std@@V?$allocator@_W@2@@std@@@2@@2@@std@@QAEXXZ PROC ; std::stack<std::basic_string<wchar_t,std::char_traits<wchar_t>,std::allocator<wchar_t> >,std::deque<std::basic_string<wchar_t,std::char_traits<wchar_t>,std::allocator<wchar_t> >,std::allocator<std::basic_string<wchar_t,std::char_traits<wchar_t>,std::allocator<wchar_t> > > > >::pop, COMDAT
; _this$ = esi

; 63   : 		c.pop_back();

	mov	eax, DWORD PTR [esi+28]
	test	eax, eax
	je	SHORT $LN3@pop
	mov	ecx, DWORD PTR [esi+24]
	lea	eax, DWORD PTR [eax+ecx-1]
	mov	ecx, DWORD PTR [esi+20]
	cmp	ecx, eax
	ja	SHORT $LN4@pop
	sub	eax, ecx
$LN4@pop:
	mov	edx, DWORD PTR [esi+16]
	mov	ecx, DWORD PTR [edx+eax*4]
	call	DWORD PTR __imp_??1?$basic_string@_WU?$char_traits@_W@std@@V?$allocator@_W@2@@std@@QAE@XZ
	add	DWORD PTR [esi+28], -1
	jne	SHORT $LN3@pop
	mov	DWORD PTR [esi+24], 0
$LN3@pop:

; 64   : 		}

	ret	0
?pop@?$stack@V?$basic_string@_WU?$char_traits@_W@std@@V?$allocator@_W@2@@std@@V?$deque@V?$basic_string@_WU?$char_traits@_W@std@@V?$allocator@_W@2@@std@@V?$allocator@V?$basic_string@_WU?$char_traits@_W@std@@V?$allocator@_W@2@@std@@@2@@2@@std@@QAEXXZ ENDP ; std::stack<std::basic_string<wchar_t,std::char_traits<wchar_t>,std::allocator<wchar_t> >,std::deque<std::basic_string<wchar_t,std::char_traits<wchar_t>,std::allocator<wchar_t> >,std::allocator<std::basic_string<wchar_t,std::char_traits<wchar_t>,std::allocator<wchar_t> > > > >::pop
; Function compile flags: /Ogtpy
_TEXT	ENDS
;	COMDAT ?pop@?$stack@_WV?$deque@_WV?$allocator@_W@std@@@std@@@std@@QAEXXZ
_TEXT	SEGMENT
?pop@?$stack@_WV?$deque@_WV?$allocator@_W@std@@@std@@@std@@QAEXXZ PROC ; std::stack<wchar_t,std::deque<wchar_t,std::allocator<wchar_t> > >::pop, COMDAT
; _this$ = esi

; 63   : 		c.pop_back();

	mov	eax, DWORD PTR [esi+28]
	test	eax, eax
	je	SHORT $LN3@pop@2
	mov	ecx, DWORD PTR [esi+24]
	mov	edx, DWORD PTR [esi+20]
	lea	ecx, DWORD PTR [eax+ecx-1]
	mov	eax, ecx
	shr	eax, 3
	cmp	edx, eax
	ja	SHORT $LN4@pop@2
	sub	eax, edx
$LN4@pop@2:
	mov	edx, DWORD PTR [esi+16]
	mov	eax, DWORD PTR [edx+eax*4]
	and	ecx, 7
	lea	ecx, DWORD PTR [eax+ecx*2]
	push	ecx
	lea	ecx, DWORD PTR [esi+12]
	call	DWORD PTR __imp_?destroy@?$allocator@_W@std@@QAEXPA_W@Z
	add	DWORD PTR [esi+28], -1
	jne	SHORT $LN3@pop@2
	mov	DWORD PTR [esi+24], 0
$LN3@pop@2:

; 64   : 		}

	ret	0
?pop@?$stack@_WV?$deque@_WV?$allocator@_W@std@@@std@@@std@@QAEXXZ ENDP ; std::stack<wchar_t,std::deque<wchar_t,std::allocator<wchar_t> > >::pop
_TEXT	ENDS
PUBLIC	?ReadCompressedInt@SignatureReader@@AAE_NPAH@Z	; SignatureReader::ReadCompressedInt
; Function compile flags: /Ogtpy
; File e:\program\c#\sharpdevelop5\src\addins\analysis\profiler\hook\profilermetadata.cpp
;	COMDAT ?ReadCompressedInt@SignatureReader@@AAE_NPAH@Z
_TEXT	SEGMENT
_byte2$ = -2						; size = 1
_byte3$ = -1						; size = 1
?ReadCompressedInt@SignatureReader@@AAE_NPAH@Z PROC	; SignatureReader::ReadCompressedInt, COMDAT
; _this$ = eax
; _out$ = edi

; 513  : {

	push	ecx

; 514  :     byte byte1 = 0, byte2 = 0, byte3 = 0, byte4 = 0;
; 515  :         
; 516  :     if (!ReadByte(&byte1))

	mov	ecx, DWORD PTR [eax+12]
	push	esi
	mov	esi, DWORD PTR [eax+20]
	cmp	ecx, esi
	jae	SHORT $LN11@ReadCompre
	mov	dl, BYTE PTR [ecx]
	inc	ecx
	mov	DWORD PTR [eax+12], ecx

; 518  : 
; 519  :     if (byte1 == 0xff) // = nullptr -> error

	cmp	dl, 255					; 000000ffH

; 520  : 		return false;

	je	SHORT $LN11@ReadCompre

; 521  : 
; 522  :     if ((byte1 & 0x80) == 0) {

	test	dl, dl
	js	SHORT $LN6@ReadCompre

; 523  :         *out = (int)byte1;

	movzx	eax, dl
	mov	DWORD PTR [edi], eax

; 524  :         return true;

	mov	al, 1
	pop	esi

; 546  : }

	pop	ecx
	ret	0

; 514  :     byte byte1 = 0, byte2 = 0, byte3 = 0, byte4 = 0;
; 515  :         
; 516  :     if (!ReadByte(&byte1))

$LN11@ReadCompre:

; 517  :         return false;

	xor	al, al
	pop	esi

; 546  : }

	pop	ecx
	ret	0
$LN6@ReadCompre:

; 525  :     }
; 526  : 
; 527  :     if (!ReadByte(&byte2))

	cmp	ecx, esi
	jae	SHORT $LN11@ReadCompre
	push	ebx
	mov	bl, BYTE PTR [ecx]
	inc	ecx
	mov	BYTE PTR _byte2$[esp+12], bl
	mov	DWORD PTR [eax+12], ecx

; 528  :         return false;
; 529  : 
; 530  :     if ((byte1 & 0x40) == 0) {

	test	dl, 64					; 00000040H
	jne	SHORT $LN4@ReadCompre

; 531  :         *out = (((byte1 & 0x3f) << 8) | byte2);

	movzx	ecx, dl
	and	ecx, 63					; 0000003fH
	movzx	edx, bl
	shl	ecx, 8
	or	ecx, edx
	pop	ebx
	mov	DWORD PTR [edi], ecx

; 545  :     return true;

	mov	al, 1
	pop	esi

; 546  : }

	pop	ecx
	ret	0
$LN4@ReadCompre:

; 532  :         return true;
; 533  :     }
; 534  : 
; 535  :     if ((byte1 & 0x20) != 0)        

	test	dl, 32					; 00000020H

; 536  :         return false;

	jne	SHORT $LN20@ReadCompre

; 537  : 
; 538  :     if (!ReadByte(&byte3))

	cmp	ecx, esi
	jae	SHORT $LN20@ReadCompre
	mov	bl, BYTE PTR [ecx]
	inc	ecx
	mov	BYTE PTR _byte3$[esp+12], bl
	mov	DWORD PTR [eax+12], ecx

; 539  :         return false;
; 540  :     
; 541  :     if (!ReadByte(&byte4))

	cmp	ecx, esi
	jae	SHORT $LN20@ReadCompre
	mov	bl, BYTE PTR [ecx]
	inc	ecx
	mov	DWORD PTR [eax+12], ecx

; 543  : 
; 544  :     *out = ((byte1 & 0x1f) << 24) | (byte2 << 16) | (byte3 << 8) | byte4;

	movzx	ecx, BYTE PTR _byte2$[esp+12]
	movzx	eax, dl
	movzx	edx, BYTE PTR _byte3$[esp+12]
	and	eax, 31					; 0000001fH
	shl	eax, 8
	or	eax, ecx
	shl	eax, 8
	or	eax, edx
	movzx	ecx, bl
	shl	eax, 8
	or	eax, ecx
	pop	ebx
	mov	DWORD PTR [edi], eax

; 545  :     return true;

	mov	al, 1
	pop	esi

; 546  : }

	pop	ecx
	ret	0

; 539  :         return false;
; 540  :     
; 541  :     if (!ReadByte(&byte4))

$LN20@ReadCompre:
	pop	ebx

; 542  :         return false;

	xor	al, al
	pop	esi

; 546  : }

	pop	ecx
	ret	0
?ReadCompressedInt@SignatureReader@@AAE_NPAH@Z ENDP	; SignatureReader::ReadCompressedInt
; Function compile flags: /Ogtpy
; File c:\program files\microsoft sdks\windows\v6.0a\include\cor.h
_TEXT	ENDS
;	COMDAT ?CorSigUncompressData@@YAKPBEPAK@Z
_TEXT	SEGMENT
_dwSizeOfData$ = -4					; size = 4
?CorSigUncompressData@@YAKPBEPAK@Z PROC			; CorSigUncompressData, COMDAT
; _pData$ = edx
; _pDataOut$ = eax

; 2351 : {   

	push	ecx
	push	edi

; 2352 : 
; 2353 :     ULONG dwSizeOfData = 0;
; 2354 : 
; 2355 :     // We don't know how big the signature is, so we'll just say that it's big enough
; 2356 :     if (FAILED(CorSigUncompressData(pData, 0xff, pDataOut, &dwSizeOfData)))

	push	eax
	lea	edi, DWORD PTR _dwSizeOfData$[esp+12]
	mov	DWORD PTR _dwSizeOfData$[esp+12], 0
	call	?CorSigUncompressData@@YAJPBEKPAK1@Z	; CorSigUncompressData
	add	esp, 4
	pop	edi
	test	eax, eax
	jge	SHORT $LN1@CorSigUnco@2

; 2357 :         return (ULONG)-1;

	or	eax, -1

; 2361 : }

	pop	ecx
	ret	0
$LN1@CorSigUnco@2:

; 2358 : 
; 2359 : 
; 2360 :     return dwSizeOfData;

	mov	eax, DWORD PTR _dwSizeOfData$[esp+4]

; 2361 : }

	pop	ecx
	ret	0
?CorSigUncompressData@@YAKPBEPAK@Z ENDP			; CorSigUncompressData
;	COMDAT xdata$x
; File c:\program files (x86)\microsoft visual studio 9.0\vc\include\ios
xdata$x	SEGMENT
__unwindtable$??$?6_WU?$char_traits@_W@std@@@std@@YAAAV?$basic_ostream@_WU?$char_traits@_W@std@@@0@AAV10@D@Z DD 0ffffffffH
	DD	FLAT:__unwindfunclet$??$?6_WU?$char_traits@_W@std@@@std@@YAAAV?$basic_ostream@_WU?$char_traits@_W@std@@@0@AAV10@D@Z$2
	DD	00H
	DD	FLAT:__unwindfunclet$??$?6_WU?$char_traits@_W@std@@@std@@YAAAV?$basic_ostream@_WU?$char_traits@_W@std@@@0@AAV10@D@Z$3
	DD	00H
	DD	00H
	DD	00H
	DD	00H
	DD	0ffffffffH
	DD	FLAT:__unwindfunclet$??$?6_WU?$char_traits@_W@std@@@std@@YAAAV?$basic_ostream@_WU?$char_traits@_W@std@@@0@AAV10@D@Z$4
__catchsym$??$?6_WU?$char_traits@_W@std@@@std@@YAAAV?$basic_ostream@_WU?$char_traits@_W@std@@@0@AAV10@D@Z$5 DD 040H
	DD	00H
	DD	00H
	DD	FLAT:__catch$??$?6_WU?$char_traits@_W@std@@@std@@YAAAV?$basic_ostream@_WU?$char_traits@_W@std@@@0@AAV10@D@Z$0
__tryblocktable$??$?6_WU?$char_traits@_W@std@@@std@@YAAAV?$basic_ostream@_WU?$char_traits@_W@std@@@0@AAV10@D@Z DD 02H
	DD	02H
	DD	03H
	DD	01H
	DD	FLAT:__catchsym$??$?6_WU?$char_traits@_W@std@@@std@@YAAAV?$basic_ostream@_WU?$char_traits@_W@std@@@0@AAV10@D@Z$5
__ehfuncinfo$??$?6_WU?$char_traits@_W@std@@@std@@YAAAV?$basic_ostream@_WU?$char_traits@_W@std@@@0@AAV10@D@Z DD 019930522H
	DD	05H
	DD	FLAT:__unwindtable$??$?6_WU?$char_traits@_W@std@@@std@@YAAAV?$basic_ostream@_WU?$char_traits@_W@std@@@0@AAV10@D@Z
	DD	01H
	DD	FLAT:__tryblocktable$??$?6_WU?$char_traits@_W@std@@@std@@YAAAV?$basic_ostream@_WU?$char_traits@_W@std@@@0@AAV10@D@Z
	DD	2 DUP(00H)
	DD	00H
	DD	01H
; Function compile flags: /Ogtpy
; File c:\program files (x86)\microsoft visual studio 9.0\vc\include\ostream
xdata$x	ENDS
;	COMDAT ??$?6_WU?$char_traits@_W@std@@@std@@YAAAV?$basic_ostream@_WU?$char_traits@_W@std@@@0@AAV10@D@Z
_TEXT	SEGMENT
__Ok$ = -48						; size = 8
__Ctype_fac$103973 = -40				; size = 4
__Ch$ = -36						; size = 1
$T128332 = -32						; size = 4
__State$ = -28						; size = 4
__Pad$103977 = -24					; size = 4
__$EHRec$ = -16						; size = 16
__Ostr$ = 8						; size = 4
??$?6_WU?$char_traits@_W@std@@@std@@YAAAV?$basic_ostream@_WU?$char_traits@_W@std@@@0@AAV10@D@Z PROC ; std::operator<<<wchar_t,std::char_traits<wchar_t> >, COMDAT

; 702  : 	{	// insert a character

	push	ebp
	mov	ebp, esp
	push	-1
	push	__ehhandler$??$?6_WU?$char_traits@_W@std@@@std@@YAAAV?$basic_ostream@_WU?$char_traits@_W@std@@@0@AAV10@D@Z
	mov	eax, DWORD PTR fs:0
	push	eax
	mov	DWORD PTR fs:0, esp
	sub	esp, 36					; 00000024H
	push	ebx
	push	esi
	mov	esi, DWORD PTR __Ostr$[ebp]
	push	edi

; 703  : 	ios_base::iostate _State = ios_base::goodbit;
; 704  : 	const typename basic_ostream<_Elem, _Traits>::sentry _Ok(_Ostr);

	lea	eax, DWORD PTR __Ok$[ebp]
	mov	DWORD PTR __$EHRec$[ebp], esp
	xor	ebx, ebx
	push	eax
	mov	BYTE PTR __Ch$[ebp], 34			; 00000022H
	xor	edi, edi
	mov	DWORD PTR __State$[ebp], ebx
	call	??0sentry@?$basic_ostream@_WU?$char_traits@_W@std@@@std@@QAE@AAV12@@Z ; std::basic_ostream<wchar_t,std::char_traits<wchar_t> >::sentry::sentry
	mov	DWORD PTR __$EHRec$[ebp+12], edi

; 705  : 
; 706  : 	if (_Ok)

	cmp	BYTE PTR __Ok$[ebp+4], bl
	je	$LN21@operator@7

; 707  : 		{	// state okay, insert
; 708  : 		const ctype<_Elem>& _Ctype_fac = _USE(_Ostr.getloc(), ctype<_Elem>);

	mov	edx, DWORD PTR [esi]
	lea	ecx, DWORD PTR $T128332[ebp]
	push	ecx
	mov	ecx, DWORD PTR [edx+4]
	add	ecx, esi
	call	DWORD PTR __imp_?getloc@ios_base@std@@QBE?AVlocale@2@XZ
	mov	ecx, eax
	mov	BYTE PTR __$EHRec$[ebp+12], 1
	call	??$use_facet@V?$ctype@_W@std@@@std@@YAABV?$ctype@_W@0@ABVlocale@0@@Z ; std::use_facet<std::ctype<wchar_t> >
	lea	ecx, DWORD PTR $T128332[ebp]
	mov	DWORD PTR __Ctype_fac$103973[ebp], eax
	call	DWORD PTR __imp_??1locale@std@@QAE@XZ

; 709  : 		streamsize _Pad = _Ostr.width() <= 1 ? 0 : _Ostr.width() - 1;

	mov	eax, DWORD PTR [esi]
	mov	ecx, DWORD PTR [eax+4]
	mov	eax, DWORD PTR [ecx+esi+24]
	add	ecx, esi
	cmp	eax, 1
	jg	SHORT $LN15@operator@7
	mov	DWORD PTR __Pad$103977[ebp], edi
	jmp	SHORT $LN16@operator@7
$LN15@operator@7:
	dec	eax
	mov	DWORD PTR __Pad$103977[ebp], eax
	mov	edi, eax
$LN16@operator@7:

; 710  : 
; 711  : 		_TRY_IO_BEGIN

	mov	BYTE PTR __$EHRec$[ebp+12], 2

; 712  : 		if ((_Ostr.flags() & ios_base::adjustfield) != ios_base::left)

	mov	ecx, DWORD PTR [ecx+16]
	and	ecx, 448				; 000001c0H
	cmp	ecx, 64					; 00000040H
	je	SHORT $LN70@operator@7
	npad	7
$LL9@operator@7:

; 713  : 			for (; _State == ios_base::goodbit && 0 < _Pad;
; 714  : 				--_Pad)	// pad on left

	test	ebx, ebx
	jne	$LN2@operator@7
	test	edi, edi
	jle	SHORT $LN70@operator@7

; 715  : 				if (_Traits::eq_int_type(_Traits::eof(),
; 716  : 					_Ostr.rdbuf()->sputc(_Ostr.fill())))

	mov	edx, DWORD PTR [esi]
	mov	eax, DWORD PTR [edx+4]
	movzx	edx, WORD PTR [eax+esi+48]
	add	eax, esi
	mov	eax, DWORD PTR [eax+40]
	push	edx
	mov	ecx, eax
	call	DWORD PTR __imp_?sputc@?$basic_streambuf@_WU?$char_traits@_W@std@@@std@@QAEG_W@Z
	movzx	eax, ax
	mov	ecx, 65535				; 0000ffffH
	cmp	cx, ax
	jne	SHORT $LN8@operator@7

; 717  : 					_State |= ios_base::badbit;

	mov	ebx, 4
	mov	DWORD PTR __State$[ebp], ebx
$LN8@operator@7:
	dec	edi
	mov	DWORD PTR __Pad$103977[ebp], edi
	jmp	SHORT $LL9@operator@7
$LN70@operator@7:

; 718  : 
; 719  : 		if (_State == ios_base::goodbit
; 720  : 			&& _Traits::eq_int_type(_Traits::eof(),
; 721  : 				_Ostr.rdbuf()->sputc(_Ctype_fac.widen(_Ch))))

	mov	edx, DWORD PTR [esi]
	mov	ecx, DWORD PTR __Ch$[ebp]
	mov	eax, DWORD PTR [edx+4]
	mov	edi, DWORD PTR [eax+esi+40]
	push	ecx
	mov	ecx, DWORD PTR __Ctype_fac$103973[ebp]
	call	DWORD PTR __imp_?widen@?$ctype@_W@std@@QBE_WD@Z
	movzx	eax, ax
	push	eax
	mov	ecx, edi
	call	DWORD PTR __imp_?sputc@?$basic_streambuf@_WU?$char_traits@_W@std@@@std@@QAEG_W@Z
	movzx	eax, ax
	mov	edx, 65535				; 0000ffffH
	cmp	dx, ax
	jne	SHORT $LL71@operator@7

; 722  : 			_State |= ios_base::badbit;

	mov	ebx, 4
	mov	DWORD PTR __State$[ebp], ebx
$LL71@operator@7:

; 723  : 
; 724  : 		for (; _State == ios_base::goodbit && 0 < _Pad;
; 725  : 			--_Pad)	// pad on right

	test	ebx, ebx
	jne	SHORT $LN2@operator@7
	cmp	DWORD PTR __Pad$103977[ebp], ebx
	jle	SHORT $LN2@operator@7

; 726  : 			if (_Traits::eq_int_type(_Traits::eof(),
; 727  : 				_Ostr.rdbuf()->sputc(_Ostr.fill())))

	mov	eax, DWORD PTR [esi]
	mov	ecx, DWORD PTR [eax+4]
	movzx	edx, WORD PTR [ecx+esi+48]
	lea	eax, DWORD PTR [ecx+esi]
	mov	eax, DWORD PTR [eax+40]
	push	edx
	mov	ecx, eax
	call	DWORD PTR __imp_?sputc@?$basic_streambuf@_WU?$char_traits@_W@std@@@std@@QAEG_W@Z
	movzx	eax, ax
	mov	edx, 65535				; 0000ffffH
	cmp	dx, ax
	jne	SHORT $LN3@operator@7

; 728  : 				_State |= ios_base::badbit;

	mov	ebx, 4
	mov	DWORD PTR __State$[ebp], ebx
$LN3@operator@7:

; 723  : 
; 724  : 		for (; _State == ios_base::goodbit && 0 < _Pad;
; 725  : 			--_Pad)	// pad on right

	dec	DWORD PTR __Pad$103977[ebp]
	jmp	SHORT $LL71@operator@7
__catch$??$?6_WU?$char_traits@_W@std@@@std@@YAAAV?$basic_ostream@_WU?$char_traits@_W@std@@@0@AAV10@D@Z$0:

; 729  : 		_CATCH_IO_(_Ostr)

	mov	eax, DWORD PTR __Ostr$[ebp]
	mov	ecx, DWORD PTR [eax]
	mov	ecx, DWORD PTR [ecx+4]
	push	1
	push	4
	add	ecx, eax
	call	DWORD PTR __imp_?setstate@?$basic_ios@_WU?$char_traits@_W@std@@@std@@QAEXH_N@Z
	mov	DWORD PTR __$EHRec$[ebp+12], 0
	mov	eax, $LN22@operator@7
	ret	0
$LN22@operator@7:
	mov	esi, DWORD PTR __Ostr$[ebp]
	mov	ebx, DWORD PTR __State$[ebp]
	jmp	SHORT $LN21@operator@7
$LN2@operator@7:
	mov	DWORD PTR __$EHRec$[ebp+12], 0
$LN21@operator@7:

; 730  : 		}
; 731  : 
; 732  : 	_Ostr.width(0);

	mov	edx, DWORD PTR [esi]
	mov	eax, DWORD PTR [edx+4]
	add	eax, esi
	mov	DWORD PTR [eax+24], 0

; 733  : 	_Ostr.setstate(_State);

	mov	eax, DWORD PTR [esi]
	mov	ecx, DWORD PTR [eax+4]
	push	0
	push	ebx
	add	ecx, esi
	call	DWORD PTR __imp_?setstate@?$basic_ios@_WU?$char_traits@_W@std@@@std@@QAEXH_N@Z

; 734  : 	return (_Ostr);

	mov	DWORD PTR __$EHRec$[ebp+12], 4
	call	DWORD PTR __imp_?uncaught_exception@std@@YA_NXZ
	test	al, al
	jne	SHORT $LN55@operator@7
	mov	ecx, DWORD PTR __Ok$[ebp]
	call	DWORD PTR __imp_?_Osfx@?$basic_ostream@_WU?$char_traits@_W@std@@@std@@QAEXXZ
$LN55@operator@7:
	mov	DWORD PTR __$EHRec$[ebp+12], -1
	mov	eax, DWORD PTR __Ok$[ebp]
	mov	ecx, DWORD PTR [eax]
	mov	edx, DWORD PTR [ecx+4]
	mov	ecx, DWORD PTR [edx+eax+40]
	test	ecx, ecx
	je	SHORT $LN73@operator@7
	call	DWORD PTR __imp_?_Unlock@?$basic_streambuf@_WU?$char_traits@_W@std@@@std@@QAEXXZ
$LN73@operator@7:

; 735  : 	}

	mov	ecx, DWORD PTR __$EHRec$[ebp+4]
	pop	edi
	mov	eax, esi
	pop	esi
	mov	DWORD PTR fs:0, ecx
	pop	ebx
	mov	esp, ebp
	pop	ebp
	ret	0
_TEXT	ENDS
;	COMDAT text$x
text$x	SEGMENT
__unwindfunclet$??$?6_WU?$char_traits@_W@std@@@std@@YAAAV?$basic_ostream@_WU?$char_traits@_W@std@@@0@AAV10@D@Z$2:
	lea	eax, DWORD PTR __Ok$[ebp]
	push	eax
	call	??1sentry@?$basic_ostream@_WU?$char_traits@_W@std@@@std@@QAE@XZ ; std::basic_ostream<wchar_t,std::char_traits<wchar_t> >::sentry::~sentry
	ret	0
__unwindfunclet$??$?6_WU?$char_traits@_W@std@@@std@@YAAAV?$basic_ostream@_WU?$char_traits@_W@std@@@0@AAV10@D@Z$3:
	lea	ecx, DWORD PTR $T128332[ebp]
	jmp	DWORD PTR __imp_??1locale@std@@QAE@XZ
__unwindfunclet$??$?6_WU?$char_traits@_W@std@@@std@@YAAAV?$basic_ostream@_WU?$char_traits@_W@std@@@0@AAV10@D@Z$4:
	lea	eax, DWORD PTR __Ok$[ebp]
	jmp	??1_Sentry_base@?$basic_ostream@_WU?$char_traits@_W@std@@@std@@QAE@XZ ; std::basic_ostream<wchar_t,std::char_traits<wchar_t> >::_Sentry_base::~_Sentry_base
__ehhandler$??$?6_WU?$char_traits@_W@std@@@std@@YAAAV?$basic_ostream@_WU?$char_traits@_W@std@@@0@AAV10@D@Z:
	mov	eax, OFFSET __ehfuncinfo$??$?6_WU?$char_traits@_W@std@@@std@@YAAAV?$basic_ostream@_WU?$char_traits@_W@std@@@0@AAV10@D@Z
	jmp	___CxxFrameHandler3
text$x	ENDS
??$?6_WU?$char_traits@_W@std@@@std@@YAAAV?$basic_ostream@_WU?$char_traits@_W@std@@@0@AAV10@D@Z ENDP ; std::operator<<<wchar_t,std::char_traits<wchar_t> >
; Function compile flags: /Ogtpy
; File c:\program files (x86)\microsoft visual studio 9.0\vc\include\deque
;	COMDAT ??Y?$_Deque_const_iterator@V?$basic_string@_WU?$char_traits@_W@std@@V?$allocator@_W@2@@std@@V?$allocator@V?$basic_string@_WU?$char_traits@_W@std@@V?$allocator@_W@2@@std@@@2@$00@std@@QAEAAV01@H@Z
_TEXT	SEGMENT
??Y?$_Deque_const_iterator@V?$basic_string@_WU?$char_traits@_W@std@@V?$allocator@_W@2@@std@@V?$allocator@V?$basic_string@_WU?$char_traits@_W@std@@V?$allocator@_W@2@@std@@@2@$00@std@@QAEAAV01@H@Z PROC ; std::_Deque_const_iterator<std::basic_string<wchar_t,std::char_traits<wchar_t>,std::allocator<wchar_t> >,std::allocator<std::basic_string<wchar_t,std::char_traits<wchar_t>,std::allocator<wchar_t> > >,1>::operator+=, COMDAT
; _this$ = esi

; 199  : 		_SCL_SECURE_TRAITS_VALIDATE(this->_Has_container());

	mov	eax, DWORD PTR [esi]
	push	ebx
	mov	ebx, DWORD PTR __imp___invalid_parameter_noinfo
	push	edi
	test	eax, eax
	jne	SHORT $LN34@operator@8
	call	ebx

; 200  : 		_SCL_SECURE_TRAITS_VALIDATE_RANGE(
; 201  : 			_Myoff + _Off <= ((_Mydeque *)(this->_Getmycont()))->_Myoff + ((_Mydeque *)(this->_Getmycont()))->_Mysize &&
; 202  : 			_Myoff + _Off >= ((_Mydeque *)(this->_Getmycont()))->_Myoff);

	mov	eax, DWORD PTR [esi]
	test	eax, eax
	je	SHORT $LN18@operator@8
$LN34@operator@8:
	mov	edi, DWORD PTR [eax]
	jmp	SHORT $LN19@operator@8
$LN18@operator@8:
	xor	edi, edi
$LN19@operator@8:
	test	eax, eax
	je	SHORT $LN24@operator@8
	mov	edx, DWORD PTR [eax]
	jmp	SHORT $LN25@operator@8
$LN24@operator@8:
	xor	edx, edx
$LN25@operator@8:
	mov	edx, DWORD PTR [edx+28]
	mov	ecx, DWORD PTR [esi+4]
	add	edx, DWORD PTR [edi+24]
	dec	ecx
	cmp	ecx, edx
	ja	SHORT $LN4@operator@8
	test	eax, eax
	je	SHORT $LN30@operator@8
	mov	eax, DWORD PTR [eax]
	jmp	SHORT $LN31@operator@8
$LN30@operator@8:
	xor	eax, eax
$LN31@operator@8:
	cmp	ecx, DWORD PTR [eax+24]
	jae	SHORT $LN35@operator@8
$LN4@operator@8:
	call	ebx
$LN35@operator@8:

; 203  : 		_Myoff += _Off;

	dec	DWORD PTR [esi+4]
	pop	edi

; 204  : 		return (*this);

	mov	eax, esi
	pop	ebx

; 205  : 		}

	ret	0
??Y?$_Deque_const_iterator@V?$basic_string@_WU?$char_traits@_W@std@@V?$allocator@_W@2@@std@@V?$allocator@V?$basic_string@_WU?$char_traits@_W@std@@V?$allocator@_W@2@@std@@@2@$00@std@@QAEAAV01@H@Z ENDP ; std::_Deque_const_iterator<std::basic_string<wchar_t,std::char_traits<wchar_t>,std::allocator<wchar_t> >,std::allocator<std::basic_string<wchar_t,std::char_traits<wchar_t>,std::allocator<wchar_t> > >,1>::operator+=
; Function compile flags: /Ogtpy
_TEXT	ENDS
;	COMDAT ??Y?$_Deque_const_iterator@_WV?$allocator@_W@std@@$00@std@@QAEAAV01@H@Z
_TEXT	SEGMENT
??Y?$_Deque_const_iterator@_WV?$allocator@_W@std@@$00@std@@QAEAAV01@H@Z PROC ; std::_Deque_const_iterator<wchar_t,std::allocator<wchar_t>,1>::operator+=, COMDAT
; _this$ = esi

; 199  : 		_SCL_SECURE_TRAITS_VALIDATE(this->_Has_container());

	mov	eax, DWORD PTR [esi]
	push	ebx
	mov	ebx, DWORD PTR __imp___invalid_parameter_noinfo
	push	edi
	test	eax, eax
	jne	SHORT $LN34@operator@9
	call	ebx

; 200  : 		_SCL_SECURE_TRAITS_VALIDATE_RANGE(
; 201  : 			_Myoff + _Off <= ((_Mydeque *)(this->_Getmycont()))->_Myoff + ((_Mydeque *)(this->_Getmycont()))->_Mysize &&
; 202  : 			_Myoff + _Off >= ((_Mydeque *)(this->_Getmycont()))->_Myoff);

	mov	eax, DWORD PTR [esi]
	test	eax, eax
	je	SHORT $LN18@operator@9
$LN34@operator@9:
	mov	edi, DWORD PTR [eax]
	jmp	SHORT $LN19@operator@9
$LN18@operator@9:
	xor	edi, edi
$LN19@operator@9:
	test	eax, eax
	je	SHORT $LN24@operator@9
	mov	edx, DWORD PTR [eax]
	jmp	SHORT $LN25@operator@9
$LN24@operator@9:
	xor	edx, edx
$LN25@operator@9:
	mov	edx, DWORD PTR [edx+28]
	mov	ecx, DWORD PTR [esi+4]
	add	edx, DWORD PTR [edi+24]
	dec	ecx
	cmp	ecx, edx
	ja	SHORT $LN4@operator@9
	test	eax, eax
	je	SHORT $LN30@operator@9
	mov	eax, DWORD PTR [eax]
	jmp	SHORT $LN31@operator@9
$LN30@operator@9:
	xor	eax, eax
$LN31@operator@9:
	cmp	ecx, DWORD PTR [eax+24]
	jae	SHORT $LN35@operator@9
$LN4@operator@9:
	call	ebx
$LN35@operator@9:

; 203  : 		_Myoff += _Off;

	dec	DWORD PTR [esi+4]
	pop	edi

; 204  : 		return (*this);

	mov	eax, esi
	pop	ebx

; 205  : 		}

	ret	0
??Y?$_Deque_const_iterator@_WV?$allocator@_W@std@@$00@std@@QAEAAV01@H@Z ENDP ; std::_Deque_const_iterator<wchar_t,std::allocator<wchar_t>,1>::operator+=
; Function compile flags: /Ogtpy
_TEXT	ENDS
;	COMDAT ??Y?$_Deque_iterator@V?$basic_string@_WU?$char_traits@_W@std@@V?$allocator@_W@2@@std@@V?$allocator@V?$basic_string@_WU?$char_traits@_W@std@@V?$allocator@_W@2@@std@@@2@$00@std@@QAEAAV01@H@Z
_TEXT	SEGMENT
??Y?$_Deque_iterator@V?$basic_string@_WU?$char_traits@_W@std@@V?$allocator@_W@2@@std@@V?$allocator@V?$basic_string@_WU?$char_traits@_W@std@@V?$allocator@_W@2@@std@@@2@$00@std@@QAEAAV01@H@Z PROC ; std::_Deque_iterator<std::basic_string<wchar_t,std::char_traits<wchar_t>,std::allocator<wchar_t> >,std::allocator<std::basic_string<wchar_t,std::char_traits<wchar_t>,std::allocator<wchar_t> > >,1>::operator+=, COMDAT
; _this$ = esi

; 422  : 		*(_Mybase *)this += _Off;

	mov	eax, DWORD PTR [esi]
	push	ebx
	mov	ebx, DWORD PTR __imp___invalid_parameter_noinfo
	push	edi
	test	eax, eax
	jne	SHORT $LN36@operator@10
	call	ebx
	mov	eax, DWORD PTR [esi]
	test	eax, eax
	je	SHORT $LN20@operator@10
$LN36@operator@10:
	mov	edi, DWORD PTR [eax]
	jmp	SHORT $LN21@operator@10
$LN20@operator@10:
	xor	edi, edi
$LN21@operator@10:
	test	eax, eax
	je	SHORT $LN26@operator@10
	mov	edx, DWORD PTR [eax]
	jmp	SHORT $LN27@operator@10
$LN26@operator@10:
	xor	edx, edx
$LN27@operator@10:
	mov	edx, DWORD PTR [edx+28]
	mov	ecx, DWORD PTR [esi+4]
	add	edx, DWORD PTR [edi+24]
	dec	ecx
	cmp	ecx, edx
	ja	SHORT $LN6@operator@10
	test	eax, eax
	je	SHORT $LN32@operator@10
	mov	eax, DWORD PTR [eax]
	jmp	SHORT $LN33@operator@10
$LN32@operator@10:
	xor	eax, eax
$LN33@operator@10:
	cmp	ecx, DWORD PTR [eax+24]
	jae	SHORT $LN37@operator@10
$LN6@operator@10:
	call	ebx
$LN37@operator@10:
	dec	DWORD PTR [esi+4]
	pop	edi

; 423  : 		return (*this);

	mov	eax, esi
	pop	ebx

; 424  : 		}

	ret	0
??Y?$_Deque_iterator@V?$basic_string@_WU?$char_traits@_W@std@@V?$allocator@_W@2@@std@@V?$allocator@V?$basic_string@_WU?$char_traits@_W@std@@V?$allocator@_W@2@@std@@@2@$00@std@@QAEAAV01@H@Z ENDP ; std::_Deque_iterator<std::basic_string<wchar_t,std::char_traits<wchar_t>,std::allocator<wchar_t> >,std::allocator<std::basic_string<wchar_t,std::char_traits<wchar_t>,std::allocator<wchar_t> > >,1>::operator+=
; Function compile flags: /Ogtpy
_TEXT	ENDS
;	COMDAT ??Y?$_Deque_iterator@_WV?$allocator@_W@std@@$00@std@@QAEAAV01@H@Z
_TEXT	SEGMENT
??Y?$_Deque_iterator@_WV?$allocator@_W@std@@$00@std@@QAEAAV01@H@Z PROC ; std::_Deque_iterator<wchar_t,std::allocator<wchar_t>,1>::operator+=, COMDAT
; _this$ = esi

; 422  : 		*(_Mybase *)this += _Off;

	mov	eax, DWORD PTR [esi]
	push	ebx
	mov	ebx, DWORD PTR __imp___invalid_parameter_noinfo
	push	edi
	test	eax, eax
	jne	SHORT $LN36@operator@11
	call	ebx
	mov	eax, DWORD PTR [esi]
	test	eax, eax
	je	SHORT $LN20@operator@11
$LN36@operator@11:
	mov	edi, DWORD PTR [eax]
	jmp	SHORT $LN21@operator@11
$LN20@operator@11:
	xor	edi, edi
$LN21@operator@11:
	test	eax, eax
	je	SHORT $LN26@operator@11
	mov	edx, DWORD PTR [eax]
	jmp	SHORT $LN27@operator@11
$LN26@operator@11:
	xor	edx, edx
$LN27@operator@11:
	mov	edx, DWORD PTR [edx+28]
	mov	ecx, DWORD PTR [esi+4]
	add	edx, DWORD PTR [edi+24]
	dec	ecx
	cmp	ecx, edx
	ja	SHORT $LN6@operator@11
	test	eax, eax
	je	SHORT $LN32@operator@11
	mov	eax, DWORD PTR [eax]
	jmp	SHORT $LN33@operator@11
$LN32@operator@11:
	xor	eax, eax
$LN33@operator@11:
	cmp	ecx, DWORD PTR [eax+24]
	jae	SHORT $LN37@operator@11
$LN6@operator@11:
	call	ebx
$LN37@operator@11:
	dec	DWORD PTR [esi+4]
	pop	edi

; 423  : 		return (*this);

	mov	eax, esi
	pop	ebx

; 424  : 		}

	ret	0
??Y?$_Deque_iterator@_WV?$allocator@_W@std@@$00@std@@QAEAAV01@H@Z ENDP ; std::_Deque_iterator<wchar_t,std::allocator<wchar_t>,1>::operator+=
; Function compile flags: /Ogtpy
; File c:\program files (x86)\microsoft visual studio 9.0\vc\include\xutility
_TEXT	ENDS
;	COMDAT ??0?$_Container_base_aux_alloc_real@V?$allocator@V?$basic_string@_WU?$char_traits@_W@std@@V?$allocator@_W@2@@std@@@std@@@std@@IAE@V?$allocator@V?$basic_string@_WU?$char_traits@_W@std@@V?$allocator@_W@2@@std@@@1@@Z
_TEXT	SEGMENT
__Al$ = 8						; size = 1
??0?$_Container_base_aux_alloc_real@V?$allocator@V?$basic_string@_WU?$char_traits@_W@std@@V?$allocator@_W@2@@std@@@std@@@std@@IAE@V?$allocator@V?$basic_string@_WU?$char_traits@_W@std@@V?$allocator@_W@2@@std@@@1@@Z PROC ; std::_Container_base_aux_alloc_real<std::allocator<std::basic_string<wchar_t,std::char_traits<wchar_t>,std::allocator<wchar_t> > > >::_Container_base_aux_alloc_real<std::allocator<std::basic_string<wchar_t,std::char_traits<wchar_t>,std::allocator<wchar_t> > > >, COMDAT
; _this$ = esi

; 420  : 		_Myownedaux = new (_Alaux.allocate(1)) _Aux_cont(this);

	push	4
	call	??2@YAPAXI@Z				; operator new
	add	esp, 4
	test	eax, eax
	je	SHORT $LN3@Container_@5
	mov	DWORD PTR [eax], esi
	mov	DWORD PTR [esi], eax

; 421  : 		}

	mov	eax, esi
	ret	4
$LN3@Container_@5:

; 420  : 		_Myownedaux = new (_Alaux.allocate(1)) _Aux_cont(this);

	xor	eax, eax
	mov	DWORD PTR [esi], eax

; 421  : 		}

	mov	eax, esi
	ret	4
??0?$_Container_base_aux_alloc_real@V?$allocator@V?$basic_string@_WU?$char_traits@_W@std@@V?$allocator@_W@2@@std@@@std@@@std@@IAE@V?$allocator@V?$basic_string@_WU?$char_traits@_W@std@@V?$allocator@_W@2@@std@@@1@@Z ENDP ; std::_Container_base_aux_alloc_real<std::allocator<std::basic_string<wchar_t,std::char_traits<wchar_t>,std::allocator<wchar_t> > > >::_Container_base_aux_alloc_real<std::allocator<std::basic_string<wchar_t,std::char_traits<wchar_t>,std::allocator<wchar_t> > > >
; Function compile flags: /Ogtpy
_TEXT	ENDS
;	COMDAT ??0?$_Container_base_aux_alloc_real@V?$allocator@_W@std@@@std@@IAE@V?$allocator@_W@1@@Z
_TEXT	SEGMENT
__Al$ = 8						; size = 1
??0?$_Container_base_aux_alloc_real@V?$allocator@_W@std@@@std@@IAE@V?$allocator@_W@1@@Z PROC ; std::_Container_base_aux_alloc_real<std::allocator<wchar_t> >::_Container_base_aux_alloc_real<std::allocator<wchar_t> >, COMDAT
; _this$ = esi

; 420  : 		_Myownedaux = new (_Alaux.allocate(1)) _Aux_cont(this);

	push	4
	call	??2@YAPAXI@Z				; operator new
	add	esp, 4
	test	eax, eax
	je	SHORT $LN3@Container_@6
	mov	DWORD PTR [eax], esi
	mov	DWORD PTR [esi], eax

; 421  : 		}

	mov	eax, esi
	ret	4
$LN3@Container_@6:

; 420  : 		_Myownedaux = new (_Alaux.allocate(1)) _Aux_cont(this);

	xor	eax, eax
	mov	DWORD PTR [esi], eax

; 421  : 		}

	mov	eax, esi
	ret	4
??0?$_Container_base_aux_alloc_real@V?$allocator@_W@std@@@std@@IAE@V?$allocator@_W@1@@Z ENDP ; std::_Container_base_aux_alloc_real<std::allocator<wchar_t> >::_Container_base_aux_alloc_real<std::allocator<wchar_t> >
; Function compile flags: /Ogtpy
; File c:\program files (x86)\microsoft visual studio 9.0\vc\include\deque
_TEXT	ENDS
;	COMDAT ??D?$_Deque_const_iterator@V?$basic_string@_WU?$char_traits@_W@std@@V?$allocator@_W@2@@std@@V?$allocator@V?$basic_string@_WU?$char_traits@_W@std@@V?$allocator@_W@2@@std@@@2@$00@std@@QBEABV?$basic_string@_WU?$char_traits@_W@std@@V?$allocator@_W@2@@1@XZ
_TEXT	SEGMENT
??D?$_Deque_const_iterator@V?$basic_string@_WU?$char_traits@_W@std@@V?$allocator@_W@2@@std@@V?$allocator@V?$basic_string@_WU?$char_traits@_W@std@@V?$allocator@_W@2@@std@@@2@$00@std@@QBEABV?$basic_string@_WU?$char_traits@_W@std@@V?$allocator@_W@2@@1@XZ PROC ; std::_Deque_const_iterator<std::basic_string<wchar_t,std::char_traits<wchar_t>,std::allocator<wchar_t> >,std::allocator<std::basic_string<wchar_t,std::char_traits<wchar_t>,std::allocator<wchar_t> > >,1>::operator*, COMDAT
; _this$ = eax

; 136  : 			{	// return designated object

	push	ebx

; 137  : 			size_type _Block = _Myoff / _DEQUESIZ;
; 138  : 			size_type _Off = _Myoff & (_DEQUESIZ - 1);	// assume power of 2
; 139  : 			_SCL_SECURE_VALIDATE(this->_Has_container());

	mov	ebx, DWORD PTR __imp___invalid_parameter_noinfo
	push	esi
	mov	esi, eax
	mov	eax, DWORD PTR [esi]
	push	edi
	mov	edi, DWORD PTR [esi+4]
	test	eax, eax
	jne	SHORT $LN44@operator@12
	call	ebx

; 140  : 			_SCL_SECURE_VALIDATE_RANGE(_Myoff < ((_Mydeque *)(this->_Getmycont()))->_Myoff + ((_Mydeque *)(this->_Getmycont()))->_Mysize);

	mov	eax, DWORD PTR [esi]
	test	eax, eax
	je	SHORT $LN16@operator@12
$LN44@operator@12:
	mov	ecx, DWORD PTR [eax]
	jmp	SHORT $LN17@operator@12
$LN16@operator@12:
	xor	ecx, ecx
$LN17@operator@12:
	test	eax, eax
	je	SHORT $LN22@operator@12
	mov	eax, DWORD PTR [eax]
	jmp	SHORT $LN23@operator@12
$LN22@operator@12:
	xor	eax, eax
$LN23@operator@12:
	mov	eax, DWORD PTR [eax+28]
	add	eax, DWORD PTR [ecx+24]
	cmp	DWORD PTR [esi+4], eax
	jb	SHORT $LN4@operator@12
	call	ebx
$LN4@operator@12:

; 141  : 			if (static_cast<const _Mydeque *>(this->_Getmycont())->_Mapsize <= _Block)

	mov	esi, DWORD PTR [esi]
	test	esi, esi
	je	SHORT $LN28@operator@12
	mov	eax, DWORD PTR [esi]
	jmp	SHORT $LN29@operator@12
$LN28@operator@12:
	xor	eax, eax
$LN29@operator@12:
	cmp	DWORD PTR [eax+20], edi
	ja	SHORT $LN1@operator@12

; 142  : 				_Block -= static_cast<const _Mydeque *>(this->_Getmycont())->_Mapsize;

	test	esi, esi
	je	SHORT $LN34@operator@12
	mov	eax, DWORD PTR [esi]
	jmp	SHORT $LN35@operator@12
$LN34@operator@12:
	xor	eax, eax
$LN35@operator@12:
	sub	edi, DWORD PTR [eax+20]
$LN1@operator@12:

; 143  : 			return ((static_cast<const _Mydeque *>(this->_Getmycont())->_Map)[_Block][_Off]);

	test	esi, esi
	je	SHORT $LN40@operator@12
	mov	esi, DWORD PTR [esi]
	mov	ecx, DWORD PTR [esi+16]
	mov	eax, DWORD PTR [ecx+edi*4]
	pop	edi
	pop	esi
	pop	ebx

; 144  : 			}

	ret	0

; 143  : 			return ((static_cast<const _Mydeque *>(this->_Getmycont())->_Map)[_Block][_Off]);

$LN40@operator@12:
	xor	eax, eax
	mov	edx, DWORD PTR [eax+16]
	mov	eax, DWORD PTR [edx+edi*4]
	pop	edi
	pop	esi
	pop	ebx

; 144  : 			}

	ret	0
??D?$_Deque_const_iterator@V?$basic_string@_WU?$char_traits@_W@std@@V?$allocator@_W@2@@std@@V?$allocator@V?$basic_string@_WU?$char_traits@_W@std@@V?$allocator@_W@2@@std@@@2@$00@std@@QBEABV?$basic_string@_WU?$char_traits@_W@std@@V?$allocator@_W@2@@1@XZ ENDP ; std::_Deque_const_iterator<std::basic_string<wchar_t,std::char_traits<wchar_t>,std::allocator<wchar_t> >,std::allocator<std::basic_string<wchar_t,std::char_traits<wchar_t>,std::allocator<wchar_t> > >,1>::operator*
; Function compile flags: /Ogtpy
_TEXT	ENDS
;	COMDAT ??Z?$_Deque_iterator@V?$basic_string@_WU?$char_traits@_W@std@@V?$allocator@_W@2@@std@@V?$allocator@V?$basic_string@_WU?$char_traits@_W@std@@V?$allocator@_W@2@@std@@@2@$00@std@@QAEAAV01@H@Z
_TEXT	SEGMENT
??Z?$_Deque_iterator@V?$basic_string@_WU?$char_traits@_W@std@@V?$allocator@_W@2@@std@@V?$allocator@V?$basic_string@_WU?$char_traits@_W@std@@V?$allocator@_W@2@@std@@@2@$00@std@@QAEAAV01@H@Z PROC ; std::_Deque_iterator<std::basic_string<wchar_t,std::char_traits<wchar_t>,std::allocator<wchar_t> >,std::allocator<std::basic_string<wchar_t,std::char_traits<wchar_t>,std::allocator<wchar_t> > >,1>::operator-=, COMDAT
; _this$ = esi

; 434  : 		return (*this += -_Off);

	mov	eax, DWORD PTR [esi]
	push	ebx
	mov	ebx, DWORD PTR __imp___invalid_parameter_noinfo
	push	edi
	test	eax, eax
	jne	SHORT $LN38@operator@13
	call	ebx
	mov	eax, DWORD PTR [esi]
	test	eax, eax
	je	SHORT $LN22@operator@13
$LN38@operator@13:
	mov	edi, DWORD PTR [eax]
	jmp	SHORT $LN23@operator@13
$LN22@operator@13:
	xor	edi, edi
$LN23@operator@13:
	test	eax, eax
	je	SHORT $LN28@operator@13
	mov	edx, DWORD PTR [eax]
	jmp	SHORT $LN29@operator@13
$LN28@operator@13:
	xor	edx, edx
$LN29@operator@13:
	mov	edx, DWORD PTR [edx+28]
	mov	ecx, DWORD PTR [esi+4]
	add	edx, DWORD PTR [edi+24]
	dec	ecx
	cmp	ecx, edx
	ja	SHORT $LN8@operator@13
	test	eax, eax
	je	SHORT $LN34@operator@13
	mov	eax, DWORD PTR [eax]
	jmp	SHORT $LN35@operator@13
$LN34@operator@13:
	xor	eax, eax
$LN35@operator@13:
	cmp	ecx, DWORD PTR [eax+24]
	jae	SHORT $LN39@operator@13
$LN8@operator@13:
	call	ebx
$LN39@operator@13:
	dec	DWORD PTR [esi+4]
	pop	edi
	mov	eax, esi
	pop	ebx

; 435  : 		}

	ret	0
??Z?$_Deque_iterator@V?$basic_string@_WU?$char_traits@_W@std@@V?$allocator@_W@2@@std@@V?$allocator@V?$basic_string@_WU?$char_traits@_W@std@@V?$allocator@_W@2@@std@@@2@$00@std@@QAEAAV01@H@Z ENDP ; std::_Deque_iterator<std::basic_string<wchar_t,std::char_traits<wchar_t>,std::allocator<wchar_t> >,std::allocator<std::basic_string<wchar_t,std::char_traits<wchar_t>,std::allocator<wchar_t> > >,1>::operator-=
; Function compile flags: /Ogtpy
_TEXT	ENDS
;	COMDAT ??D?$_Deque_const_iterator@_WV?$allocator@_W@std@@$00@std@@QBEAB_WXZ
_TEXT	SEGMENT
??D?$_Deque_const_iterator@_WV?$allocator@_W@std@@$00@std@@QBEAB_WXZ PROC ; std::_Deque_const_iterator<wchar_t,std::allocator<wchar_t>,1>::operator*, COMDAT
; _this$ = eax

; 136  : 			{	// return designated object

	push	ebx

; 137  : 			size_type _Block = _Myoff / _DEQUESIZ;
; 138  : 			size_type _Off = _Myoff & (_DEQUESIZ - 1);	// assume power of 2
; 139  : 			_SCL_SECURE_VALIDATE(this->_Has_container());

	mov	ebx, DWORD PTR __imp___invalid_parameter_noinfo
	push	ebp
	push	esi
	mov	esi, eax
	mov	eax, DWORD PTR [esi+4]
	push	edi
	mov	edi, eax
	and	eax, 7
	mov	ebp, eax
	mov	eax, DWORD PTR [esi]
	shr	edi, 3
	test	eax, eax
	jne	SHORT $LN44@operator@14
	call	ebx

; 140  : 			_SCL_SECURE_VALIDATE_RANGE(_Myoff < ((_Mydeque *)(this->_Getmycont()))->_Myoff + ((_Mydeque *)(this->_Getmycont()))->_Mysize);

	mov	eax, DWORD PTR [esi]
	test	eax, eax
	je	SHORT $LN16@operator@14
$LN44@operator@14:
	mov	ecx, DWORD PTR [eax]
	jmp	SHORT $LN17@operator@14
$LN16@operator@14:
	xor	ecx, ecx
$LN17@operator@14:
	test	eax, eax
	je	SHORT $LN22@operator@14
	mov	eax, DWORD PTR [eax]
	jmp	SHORT $LN23@operator@14
$LN22@operator@14:
	xor	eax, eax
$LN23@operator@14:
	mov	eax, DWORD PTR [eax+28]
	add	eax, DWORD PTR [ecx+24]
	cmp	DWORD PTR [esi+4], eax
	jb	SHORT $LN4@operator@14
	call	ebx
$LN4@operator@14:

; 141  : 			if (static_cast<const _Mydeque *>(this->_Getmycont())->_Mapsize <= _Block)

	mov	esi, DWORD PTR [esi]
	test	esi, esi
	je	SHORT $LN28@operator@14
	mov	eax, DWORD PTR [esi]
	jmp	SHORT $LN29@operator@14
$LN28@operator@14:
	xor	eax, eax
$LN29@operator@14:
	cmp	DWORD PTR [eax+20], edi
	ja	SHORT $LN1@operator@14

; 142  : 				_Block -= static_cast<const _Mydeque *>(this->_Getmycont())->_Mapsize;

	test	esi, esi
	je	SHORT $LN34@operator@14
	mov	eax, DWORD PTR [esi]
	jmp	SHORT $LN35@operator@14
$LN34@operator@14:
	xor	eax, eax
$LN35@operator@14:
	sub	edi, DWORD PTR [eax+20]
$LN1@operator@14:

; 143  : 			return ((static_cast<const _Mydeque *>(this->_Getmycont())->_Map)[_Block][_Off]);

	test	esi, esi
	je	SHORT $LN40@operator@14
	mov	esi, DWORD PTR [esi]
	mov	ecx, DWORD PTR [esi+16]
	mov	edx, DWORD PTR [ecx+edi*4]
	pop	edi
	pop	esi
	lea	eax, DWORD PTR [edx+ebp*2]
	pop	ebp
	pop	ebx

; 144  : 			}

	ret	0

; 143  : 			return ((static_cast<const _Mydeque *>(this->_Getmycont())->_Map)[_Block][_Off]);

$LN40@operator@14:
	xor	esi, esi
	mov	ecx, DWORD PTR [esi+16]
	mov	edx, DWORD PTR [ecx+edi*4]
	pop	edi
	pop	esi
	lea	eax, DWORD PTR [edx+ebp*2]
	pop	ebp
	pop	ebx

; 144  : 			}

	ret	0
??D?$_Deque_const_iterator@_WV?$allocator@_W@std@@$00@std@@QBEAB_WXZ ENDP ; std::_Deque_const_iterator<wchar_t,std::allocator<wchar_t>,1>::operator*
; Function compile flags: /Ogtpy
_TEXT	ENDS
;	COMDAT ??Z?$_Deque_iterator@_WV?$allocator@_W@std@@$00@std@@QAEAAV01@H@Z
_TEXT	SEGMENT
??Z?$_Deque_iterator@_WV?$allocator@_W@std@@$00@std@@QAEAAV01@H@Z PROC ; std::_Deque_iterator<wchar_t,std::allocator<wchar_t>,1>::operator-=, COMDAT
; _this$ = esi

; 434  : 		return (*this += -_Off);

	mov	eax, DWORD PTR [esi]
	push	ebx
	mov	ebx, DWORD PTR __imp___invalid_parameter_noinfo
	push	edi
	test	eax, eax
	jne	SHORT $LN38@operator@15
	call	ebx
	mov	eax, DWORD PTR [esi]
	test	eax, eax
	je	SHORT $LN22@operator@15
$LN38@operator@15:
	mov	edi, DWORD PTR [eax]
	jmp	SHORT $LN23@operator@15
$LN22@operator@15:
	xor	edi, edi
$LN23@operator@15:
	test	eax, eax
	je	SHORT $LN28@operator@15
	mov	edx, DWORD PTR [eax]
	jmp	SHORT $LN29@operator@15
$LN28@operator@15:
	xor	edx, edx
$LN29@operator@15:
	mov	edx, DWORD PTR [edx+28]
	mov	ecx, DWORD PTR [esi+4]
	add	edx, DWORD PTR [edi+24]
	dec	ecx
	cmp	ecx, edx
	ja	SHORT $LN8@operator@15
	test	eax, eax
	je	SHORT $LN34@operator@15
	mov	eax, DWORD PTR [eax]
	jmp	SHORT $LN35@operator@15
$LN34@operator@15:
	xor	eax, eax
$LN35@operator@15:
	cmp	ecx, DWORD PTR [eax+24]
	jae	SHORT $LN39@operator@15
$LN8@operator@15:
	call	ebx
$LN39@operator@15:
	dec	DWORD PTR [esi+4]
	pop	edi
	mov	eax, esi
	pop	ebx

; 435  : 		}

	ret	0
??Z?$_Deque_iterator@_WV?$allocator@_W@std@@$00@std@@QAEAAV01@H@Z ENDP ; std::_Deque_iterator<wchar_t,std::allocator<wchar_t>,1>::operator-=
; Function compile flags: /Ogtpy
_TEXT	ENDS
;	COMDAT ??0?$_Deque_map@V?$basic_string@_WU?$char_traits@_W@std@@V?$allocator@_W@2@@std@@V?$allocator@V?$basic_string@_WU?$char_traits@_W@std@@V?$allocator@_W@2@@std@@@2@@std@@IAE@V?$allocator@V?$basic_string@_WU?$char_traits@_W@std@@V?$allocator@_W@2@@std@@@1@@Z
_TEXT	SEGMENT
__Al$ = 8						; size = 1
??0?$_Deque_map@V?$basic_string@_WU?$char_traits@_W@std@@V?$allocator@_W@2@@std@@V?$allocator@V?$basic_string@_WU?$char_traits@_W@std@@V?$allocator@_W@2@@std@@@2@@std@@IAE@V?$allocator@V?$basic_string@_WU?$char_traits@_W@std@@V?$allocator@_W@2@@std@@@1@@Z PROC ; std::_Deque_map<std::basic_string<wchar_t,std::char_traits<wchar_t>,std::allocator<wchar_t> >,std::allocator<std::basic_string<wchar_t,std::char_traits<wchar_t>,std::allocator<wchar_t> > > >::_Deque_map<std::basic_string<wchar_t,std::char_traits<wchar_t>,std::allocator<wchar_t> >,std::allocator<std::basic_string<wchar_t,std::char_traits<wchar_t>,std::allocator<wchar_t> > > >, COMDAT
; _this$ = esi

; 478  : 		{	// construct allocator from _Al

	push	4
	call	??2@YAPAXI@Z				; operator new
	add	esp, 4
	test	eax, eax
	je	SHORT $LN8@Deque_map
	mov	DWORD PTR [eax], esi
	mov	DWORD PTR [esi], eax

; 479  : 		}

	mov	eax, esi
	ret	4

; 478  : 		{	// construct allocator from _Al

$LN8@Deque_map:
	xor	eax, eax
	mov	DWORD PTR [esi], eax

; 479  : 		}

	mov	eax, esi
	ret	4
??0?$_Deque_map@V?$basic_string@_WU?$char_traits@_W@std@@V?$allocator@_W@2@@std@@V?$allocator@V?$basic_string@_WU?$char_traits@_W@std@@V?$allocator@_W@2@@std@@@2@@std@@IAE@V?$allocator@V?$basic_string@_WU?$char_traits@_W@std@@V?$allocator@_W@2@@std@@@1@@Z ENDP ; std::_Deque_map<std::basic_string<wchar_t,std::char_traits<wchar_t>,std::allocator<wchar_t> >,std::allocator<std::basic_string<wchar_t,std::char_traits<wchar_t>,std::allocator<wchar_t> > > >::_Deque_map<std::basic_string<wchar_t,std::char_traits<wchar_t>,std::allocator<wchar_t> >,std::allocator<std::basic_string<wchar_t,std::char_traits<wchar_t>,std::allocator<wchar_t> > > >
_TEXT	ENDS
;	COMDAT xdata$x
; File c:\program files (x86)\microsoft visual studio 9.0\vc\include\stdexcept
xdata$x	SEGMENT
__unwindtable$?_Xlen@?$deque@V?$basic_string@_WU?$char_traits@_W@std@@V?$allocator@_W@2@@std@@V?$allocator@V?$basic_string@_WU?$char_traits@_W@std@@V?$allocator@_W@2@@std@@@2@@std@@KAXXZ DD 0ffffffffH
	DD	FLAT:__unwindfunclet$?_Xlen@?$deque@V?$basic_string@_WU?$char_traits@_W@std@@V?$allocator@_W@2@@std@@V?$allocator@V?$basic_string@_WU?$char_traits@_W@std@@V?$allocator@_W@2@@std@@@2@@std@@KAXXZ$0
	DD	00H
	DD	FLAT:__unwindfunclet$?_Xlen@?$deque@V?$basic_string@_WU?$char_traits@_W@std@@V?$allocator@_W@2@@std@@V?$allocator@V?$basic_string@_WU?$char_traits@_W@std@@V?$allocator@_W@2@@std@@@2@@std@@KAXXZ$2
__ehfuncinfo$?_Xlen@?$deque@V?$basic_string@_WU?$char_traits@_W@std@@V?$allocator@_W@2@@std@@V?$allocator@V?$basic_string@_WU?$char_traits@_W@std@@V?$allocator@_W@2@@std@@@2@@std@@KAXXZ DD 019930522H
	DD	02H
	DD	FLAT:__unwindtable$?_Xlen@?$deque@V?$basic_string@_WU?$char_traits@_W@std@@V?$allocator@_W@2@@std@@V?$allocator@V?$basic_string@_WU?$char_traits@_W@std@@V?$allocator@_W@2@@std@@@2@@std@@KAXXZ
	DD	2 DUP(00H)
	DD	2 DUP(00H)
	DD	00H
	DD	01H
; Function compile flags: /Ogtpy
; File c:\program files (x86)\microsoft visual studio 9.0\vc\include\deque
xdata$x	ENDS
;	COMDAT ?_Xlen@?$deque@V?$basic_string@_WU?$char_traits@_W@std@@V?$allocator@_W@2@@std@@V?$allocator@V?$basic_string@_WU?$char_traits@_W@std@@V?$allocator@_W@2@@std@@@2@@std@@KAXXZ
_TEXT	SEGMENT
$T129302 = -80						; size = 28
$T129301 = -52						; size = 40
__$EHRec$ = -12						; size = 12
?_Xlen@?$deque@V?$basic_string@_WU?$char_traits@_W@std@@V?$allocator@_W@2@@std@@V?$allocator@V?$basic_string@_WU?$char_traits@_W@std@@V?$allocator@_W@2@@std@@@2@@std@@KAXXZ PROC ; std::deque<std::basic_string<wchar_t,std::char_traits<wchar_t>,std::allocator<wchar_t> >,std::allocator<std::basic_string<wchar_t,std::char_traits<wchar_t>,std::allocator<wchar_t> > > >::_Xlen, COMDAT

; 1215 : 		{	// report length error

	push	-1
	push	__ehhandler$?_Xlen@?$deque@V?$basic_string@_WU?$char_traits@_W@std@@V?$allocator@_W@2@@std@@V?$allocator@V?$basic_string@_WU?$char_traits@_W@std@@V?$allocator@_W@2@@std@@@2@@std@@KAXXZ
	mov	eax, DWORD PTR fs:0
	push	eax
	mov	DWORD PTR fs:0, esp
	sub	esp, 72					; 00000048H

; 1216 : 		_THROW(length_error, "deque<T> too long");

	push	OFFSET ??_C@_0BC@KBDMBKEH@deque?$DMT?$DO?5too?5long?$AA@
	lea	ecx, DWORD PTR $T129302[esp+88]
	call	DWORD PTR __imp_??0?$basic_string@DU?$char_traits@D@std@@V?$allocator@D@2@@std@@QAE@PBD@Z
	lea	ecx, DWORD PTR $T129301[esp+84]
	mov	DWORD PTR __$EHRec$[esp+92], 0
	call	DWORD PTR __imp_??0exception@std@@QAE@XZ
	lea	eax, DWORD PTR $T129302[esp+84]
	mov	BYTE PTR __$EHRec$[esp+92], 1
	push	eax
	lea	ecx, DWORD PTR $T129301[esp+100]
	mov	DWORD PTR $T129301[esp+88], OFFSET ??_7logic_error@std@@6B@
	call	DWORD PTR __imp_??0?$basic_string@DU?$char_traits@D@std@@V?$allocator@D@2@@std@@QAE@ABV01@@Z
	push	OFFSET __TI3?AVlength_error@std@@
	lea	ecx, DWORD PTR $T129301[esp+88]
	mov	BYTE PTR __$EHRec$[esp+96], 0
	push	ecx
	mov	DWORD PTR $T129301[esp+92], OFFSET ??_7length_error@std@@6B@
	call	__CxxThrowException@8
$LN13@Xlen:
$LN12@Xlen:
	int	3
_TEXT	ENDS
;	COMDAT text$x
text$x	SEGMENT
__unwindfunclet$?_Xlen@?$deque@V?$basic_string@_WU?$char_traits@_W@std@@V?$allocator@_W@2@@std@@V?$allocator@V?$basic_string@_WU?$char_traits@_W@std@@V?$allocator@_W@2@@std@@@2@@std@@KAXXZ$0:
	lea	ecx, DWORD PTR $T129302[ebp]
	jmp	DWORD PTR __imp_??1?$basic_string@DU?$char_traits@D@std@@V?$allocator@D@2@@std@@QAE@XZ
__unwindfunclet$?_Xlen@?$deque@V?$basic_string@_WU?$char_traits@_W@std@@V?$allocator@_W@2@@std@@V?$allocator@V?$basic_string@_WU?$char_traits@_W@std@@V?$allocator@_W@2@@std@@@2@@std@@KAXXZ$2:
	lea	ecx, DWORD PTR $T129301[ebp]
	jmp	DWORD PTR __imp_??1exception@std@@UAE@XZ
__ehhandler$?_Xlen@?$deque@V?$basic_string@_WU?$char_traits@_W@std@@V?$allocator@_W@2@@std@@V?$allocator@V?$basic_string@_WU?$char_traits@_W@std@@V?$allocator@_W@2@@std@@@2@@std@@KAXXZ:
	mov	eax, OFFSET __ehfuncinfo$?_Xlen@?$deque@V?$basic_string@_WU?$char_traits@_W@std@@V?$allocator@_W@2@@std@@V?$allocator@V?$basic_string@_WU?$char_traits@_W@std@@V?$allocator@_W@2@@std@@@2@@std@@KAXXZ
	jmp	___CxxFrameHandler3
text$x	ENDS
?_Xlen@?$deque@V?$basic_string@_WU?$char_traits@_W@std@@V?$allocator@_W@2@@std@@V?$allocator@V?$basic_string@_WU?$char_traits@_W@std@@V?$allocator@_W@2@@std@@@2@@std@@KAXXZ ENDP ; std::deque<std::basic_string<wchar_t,std::char_traits<wchar_t>,std::allocator<wchar_t> >,std::allocator<std::basic_string<wchar_t,std::char_traits<wchar_t>,std::allocator<wchar_t> > > >::_Xlen
; Function compile flags: /Ogtpy
;	COMDAT ??0?$_Deque_map@_WV?$allocator@_W@std@@@std@@IAE@V?$allocator@_W@1@@Z
_TEXT	SEGMENT
__Al$ = 8						; size = 1
??0?$_Deque_map@_WV?$allocator@_W@std@@@std@@IAE@V?$allocator@_W@1@@Z PROC ; std::_Deque_map<wchar_t,std::allocator<wchar_t> >::_Deque_map<wchar_t,std::allocator<wchar_t> >, COMDAT
; _this$ = esi

; 478  : 		{	// construct allocator from _Al

	push	4
	call	??2@YAPAXI@Z				; operator new
	add	esp, 4
	test	eax, eax
	je	SHORT $LN8@Deque_map@2
	mov	DWORD PTR [eax], esi
	mov	DWORD PTR [esi], eax

; 479  : 		}

	mov	eax, esi
	ret	4

; 478  : 		{	// construct allocator from _Al

$LN8@Deque_map@2:
	xor	eax, eax
	mov	DWORD PTR [esi], eax

; 479  : 		}

	mov	eax, esi
	ret	4
??0?$_Deque_map@_WV?$allocator@_W@std@@@std@@IAE@V?$allocator@_W@1@@Z ENDP ; std::_Deque_map<wchar_t,std::allocator<wchar_t> >::_Deque_map<wchar_t,std::allocator<wchar_t> >
_TEXT	ENDS
;	COMDAT xdata$x
; File c:\program files (x86)\microsoft visual studio 9.0\vc\include\stdexcept
xdata$x	SEGMENT
__unwindtable$?_Xlen@?$deque@_WV?$allocator@_W@std@@@std@@KAXXZ DD 0ffffffffH
	DD	FLAT:__unwindfunclet$?_Xlen@?$deque@_WV?$allocator@_W@std@@@std@@KAXXZ$0
	DD	00H
	DD	FLAT:__unwindfunclet$?_Xlen@?$deque@_WV?$allocator@_W@std@@@std@@KAXXZ$2
__ehfuncinfo$?_Xlen@?$deque@_WV?$allocator@_W@std@@@std@@KAXXZ DD 019930522H
	DD	02H
	DD	FLAT:__unwindtable$?_Xlen@?$deque@_WV?$allocator@_W@std@@@std@@KAXXZ
	DD	2 DUP(00H)
	DD	2 DUP(00H)
	DD	00H
	DD	01H
; Function compile flags: /Ogtpy
; File c:\program files (x86)\microsoft visual studio 9.0\vc\include\deque
xdata$x	ENDS
;	COMDAT ?_Xlen@?$deque@_WV?$allocator@_W@std@@@std@@KAXXZ
_TEXT	SEGMENT
$T129410 = -80						; size = 28
$T129409 = -52						; size = 40
__$EHRec$ = -12						; size = 12
?_Xlen@?$deque@_WV?$allocator@_W@std@@@std@@KAXXZ PROC	; std::deque<wchar_t,std::allocator<wchar_t> >::_Xlen, COMDAT

; 1215 : 		{	// report length error

	push	-1
	push	__ehhandler$?_Xlen@?$deque@_WV?$allocator@_W@std@@@std@@KAXXZ
	mov	eax, DWORD PTR fs:0
	push	eax
	mov	DWORD PTR fs:0, esp
	sub	esp, 68					; 00000044H

; 1216 : 		_THROW(length_error, "deque<T> too long");

	push	OFFSET ??_C@_0BC@KBDMBKEH@deque?$DMT?$DO?5too?5long?$AA@
	lea	ecx, DWORD PTR $T129410[esp+84]
	call	DWORD PTR __imp_??0?$basic_string@DU?$char_traits@D@std@@V?$allocator@D@2@@std@@QAE@PBD@Z
	lea	ecx, DWORD PTR $T129409[esp+80]
	mov	DWORD PTR __$EHRec$[esp+88], 0
	call	DWORD PTR __imp_??0exception@std@@QAE@XZ
	lea	eax, DWORD PTR $T129410[esp+80]
	mov	BYTE PTR __$EHRec$[esp+88], 1
	push	eax
	lea	ecx, DWORD PTR $T129409[esp+96]
	mov	DWORD PTR $T129409[esp+84], OFFSET ??_7logic_error@std@@6B@
	call	DWORD PTR __imp_??0?$basic_string@DU?$char_traits@D@std@@V?$allocator@D@2@@std@@QAE@ABV01@@Z
	push	OFFSET __TI3?AVlength_error@std@@
	lea	ecx, DWORD PTR $T129409[esp+84]
	mov	BYTE PTR __$EHRec$[esp+92], 0
	push	ecx
	mov	DWORD PTR $T129409[esp+88], OFFSET ??_7length_error@std@@6B@
	call	__CxxThrowException@8
$LN13@Xlen@2:
$LN12@Xlen@2:
	int	3
_TEXT	ENDS
;	COMDAT text$x
text$x	SEGMENT
__unwindfunclet$?_Xlen@?$deque@_WV?$allocator@_W@std@@@std@@KAXXZ$0:
	lea	ecx, DWORD PTR $T129410[ebp]
	jmp	DWORD PTR __imp_??1?$basic_string@DU?$char_traits@D@std@@V?$allocator@D@2@@std@@QAE@XZ
__unwindfunclet$?_Xlen@?$deque@_WV?$allocator@_W@std@@@std@@KAXXZ$2:
	lea	ecx, DWORD PTR $T129409[ebp]
	jmp	DWORD PTR __imp_??1exception@std@@UAE@XZ
__ehhandler$?_Xlen@?$deque@_WV?$allocator@_W@std@@@std@@KAXXZ:
	mov	eax, OFFSET __ehfuncinfo$?_Xlen@?$deque@_WV?$allocator@_W@std@@@std@@KAXXZ
	jmp	___CxxFrameHandler3
text$x	ENDS
?_Xlen@?$deque@_WV?$allocator@_W@std@@@std@@KAXXZ ENDP	; std::deque<wchar_t,std::allocator<wchar_t> >::_Xlen
; Function compile flags: /Ogtpy
;	COMDAT ??G?$_Deque_iterator@V?$basic_string@_WU?$char_traits@_W@std@@V?$allocator@_W@2@@std@@V?$allocator@V?$basic_string@_WU?$char_traits@_W@std@@V?$allocator@_W@2@@std@@@2@$00@std@@QBE?AV01@H@Z
_TEXT	SEGMENT
___$ReturnUdt$ = 8					; size = 4
??G?$_Deque_iterator@V?$basic_string@_WU?$char_traits@_W@std@@V?$allocator@_W@2@@std@@V?$allocator@V?$basic_string@_WU?$char_traits@_W@std@@V?$allocator@_W@2@@std@@@2@$00@std@@QBE?AV01@H@Z PROC ; std::_Deque_iterator<std::basic_string<wchar_t,std::char_traits<wchar_t>,std::allocator<wchar_t> >,std::allocator<std::basic_string<wchar_t,std::char_traits<wchar_t>,std::allocator<wchar_t> > >,1>::operator-, COMDAT
; _this$ = eax

; 438  : 		{	// return this - integer

	push	ebx
	mov	ebx, DWORD PTR ___$ReturnUdt$[esp]
	push	ebp

; 439  : 		_Myt _Tmp = *this;
; 440  : 		return (_Tmp -= _Off);

	mov	ebp, DWORD PTR __imp___invalid_parameter_noinfo
	push	esi
	mov	esi, DWORD PTR [eax]
	push	edi
	mov	edi, DWORD PTR [eax+4]
	test	esi, esi
	jne	SHORT $LN40@operator@16
	call	ebp
	xor	eax, eax
	xor	ecx, ecx
$LN31@operator@16:
	mov	ecx, DWORD PTR [ecx+28]
	add	ecx, DWORD PTR [eax+24]
	dec	edi
	cmp	edi, ecx
	ja	SHORT $LN10@operator@16
	test	esi, esi
	je	SHORT $LN36@operator@16
	mov	eax, DWORD PTR [esi]
	jmp	SHORT $LN37@operator@16
$LN40@operator@16:
	mov	eax, DWORD PTR [esi]
	mov	ecx, eax
	jmp	SHORT $LN31@operator@16
$LN36@operator@16:
	xor	eax, eax
$LN37@operator@16:
	cmp	edi, DWORD PTR [eax+24]
	jae	SHORT $LN9@operator@16
$LN10@operator@16:
	call	ebp
$LN9@operator@16:
	mov	DWORD PTR [ebx+4], edi

; 441  : 		}

	pop	edi
	mov	DWORD PTR [ebx], esi
	pop	esi
	pop	ebp
	mov	eax, ebx
	pop	ebx
	ret	4
??G?$_Deque_iterator@V?$basic_string@_WU?$char_traits@_W@std@@V?$allocator@_W@2@@std@@V?$allocator@V?$basic_string@_WU?$char_traits@_W@std@@V?$allocator@_W@2@@std@@@2@$00@std@@QBE?AV01@H@Z ENDP ; std::_Deque_iterator<std::basic_string<wchar_t,std::char_traits<wchar_t>,std::allocator<wchar_t> >,std::allocator<std::basic_string<wchar_t,std::char_traits<wchar_t>,std::allocator<wchar_t> > >,1>::operator-
; Function compile flags: /Ogtpy
_TEXT	ENDS
;	COMDAT ??D?$_Deque_iterator@V?$basic_string@_WU?$char_traits@_W@std@@V?$allocator@_W@2@@std@@V?$allocator@V?$basic_string@_WU?$char_traits@_W@std@@V?$allocator@_W@2@@std@@@2@$00@std@@QBEAAV?$basic_string@_WU?$char_traits@_W@std@@V?$allocator@_W@2@@1@XZ
_TEXT	SEGMENT
??D?$_Deque_iterator@V?$basic_string@_WU?$char_traits@_W@std@@V?$allocator@_W@2@@std@@V?$allocator@V?$basic_string@_WU?$char_traits@_W@std@@V?$allocator@_W@2@@std@@@2@$00@std@@QBEAAV?$basic_string@_WU?$char_traits@_W@std@@V?$allocator@_W@2@@1@XZ PROC ; std::_Deque_iterator<std::basic_string<wchar_t,std::char_traits<wchar_t>,std::allocator<wchar_t> >,std::allocator<std::basic_string<wchar_t,std::char_traits<wchar_t>,std::allocator<wchar_t> > >,1>::operator*, COMDAT
; _this$ = eax

; 386  : 		return ((reference)**(_Mybase *)this);

	jmp	??D?$_Deque_const_iterator@V?$basic_string@_WU?$char_traits@_W@std@@V?$allocator@_W@2@@std@@V?$allocator@V?$basic_string@_WU?$char_traits@_W@std@@V?$allocator@_W@2@@std@@@2@$00@std@@QBEABV?$basic_string@_WU?$char_traits@_W@std@@V?$allocator@_W@2@@1@XZ ; std::_Deque_const_iterator<std::basic_string<wchar_t,std::char_traits<wchar_t>,std::allocator<wchar_t> >,std::allocator<std::basic_string<wchar_t,std::char_traits<wchar_t>,std::allocator<wchar_t> > >,1>::operator*
??D?$_Deque_iterator@V?$basic_string@_WU?$char_traits@_W@std@@V?$allocator@_W@2@@std@@V?$allocator@V?$basic_string@_WU?$char_traits@_W@std@@V?$allocator@_W@2@@std@@@2@$00@std@@QBEAAV?$basic_string@_WU?$char_traits@_W@std@@V?$allocator@_W@2@@1@XZ ENDP ; std::_Deque_iterator<std::basic_string<wchar_t,std::char_traits<wchar_t>,std::allocator<wchar_t> >,std::allocator<std::basic_string<wchar_t,std::char_traits<wchar_t>,std::allocator<wchar_t> > >,1>::operator*
; Function compile flags: /Ogtpy
_TEXT	ENDS
;	COMDAT ??G?$_Deque_iterator@_WV?$allocator@_W@std@@$00@std@@QBE?AV01@H@Z
_TEXT	SEGMENT
___$ReturnUdt$ = 8					; size = 4
??G?$_Deque_iterator@_WV?$allocator@_W@std@@$00@std@@QBE?AV01@H@Z PROC ; std::_Deque_iterator<wchar_t,std::allocator<wchar_t>,1>::operator-, COMDAT
; _this$ = eax

; 438  : 		{	// return this - integer

	push	ebx
	mov	ebx, DWORD PTR ___$ReturnUdt$[esp]
	push	ebp

; 439  : 		_Myt _Tmp = *this;
; 440  : 		return (_Tmp -= _Off);

	mov	ebp, DWORD PTR __imp___invalid_parameter_noinfo
	push	esi
	mov	esi, DWORD PTR [eax]
	push	edi
	mov	edi, DWORD PTR [eax+4]
	test	esi, esi
	jne	SHORT $LN40@operator@17
	call	ebp
	xor	eax, eax
	xor	ecx, ecx
$LN31@operator@17:
	mov	ecx, DWORD PTR [ecx+28]
	add	ecx, DWORD PTR [eax+24]
	dec	edi
	cmp	edi, ecx
	ja	SHORT $LN10@operator@17
	test	esi, esi
	je	SHORT $LN36@operator@17
	mov	eax, DWORD PTR [esi]
	jmp	SHORT $LN37@operator@17
$LN40@operator@17:
	mov	eax, DWORD PTR [esi]
	mov	ecx, eax
	jmp	SHORT $LN31@operator@17
$LN36@operator@17:
	xor	eax, eax
$LN37@operator@17:
	cmp	edi, DWORD PTR [eax+24]
	jae	SHORT $LN9@operator@17
$LN10@operator@17:
	call	ebp
$LN9@operator@17:
	mov	DWORD PTR [ebx+4], edi
	pop	edi
	mov	DWORD PTR [ebx], esi
	pop	esi
	pop	ebp
	mov	eax, ebx
	pop	ebx

; 441  : 		}

	ret	4
??G?$_Deque_iterator@_WV?$allocator@_W@std@@$00@std@@QBE?AV01@H@Z ENDP ; std::_Deque_iterator<wchar_t,std::allocator<wchar_t>,1>::operator-
; Function compile flags: /Ogtpy
_TEXT	ENDS
;	COMDAT ??D?$_Deque_iterator@_WV?$allocator@_W@std@@$00@std@@QBEAA_WXZ
_TEXT	SEGMENT
??D?$_Deque_iterator@_WV?$allocator@_W@std@@$00@std@@QBEAA_WXZ PROC ; std::_Deque_iterator<wchar_t,std::allocator<wchar_t>,1>::operator*, COMDAT
; _this$ = eax

; 386  : 		return ((reference)**(_Mybase *)this);

	jmp	??D?$_Deque_const_iterator@_WV?$allocator@_W@std@@$00@std@@QBEAB_WXZ ; std::_Deque_const_iterator<wchar_t,std::allocator<wchar_t>,1>::operator*
??D?$_Deque_iterator@_WV?$allocator@_W@std@@$00@std@@QBEAA_WXZ ENDP ; std::_Deque_iterator<wchar_t,std::allocator<wchar_t>,1>::operator*
; Function compile flags: /Ogtpy
_TEXT	ENDS
;	COMDAT ??0?$_Deque_val@V?$basic_string@_WU?$char_traits@_W@std@@V?$allocator@_W@2@@std@@V?$allocator@V?$basic_string@_WU?$char_traits@_W@std@@V?$allocator@_W@2@@std@@@2@@std@@IAE@V?$allocator@V?$basic_string@_WU?$char_traits@_W@std@@V?$allocator@_W@2@@std@@@1@@Z
_TEXT	SEGMENT
__Al$ = 8						; size = 1
??0?$_Deque_val@V?$basic_string@_WU?$char_traits@_W@std@@V?$allocator@_W@2@@std@@V?$allocator@V?$basic_string@_WU?$char_traits@_W@std@@V?$allocator@_W@2@@std@@@2@@std@@IAE@V?$allocator@V?$basic_string@_WU?$char_traits@_W@std@@V?$allocator@_W@2@@std@@@1@@Z PROC ; std::_Deque_val<std::basic_string<wchar_t,std::char_traits<wchar_t>,std::allocator<wchar_t> >,std::allocator<std::basic_string<wchar_t,std::char_traits<wchar_t>,std::allocator<wchar_t> > > >::_Deque_val<std::basic_string<wchar_t,std::char_traits<wchar_t>,std::allocator<wchar_t> >,std::allocator<std::basic_string<wchar_t,std::char_traits<wchar_t>,std::allocator<wchar_t> > > >, COMDAT
; _this$ = esi

; 500  : 		{	// construct allocator and base from _Al

	push	4
	call	??2@YAPAXI@Z				; operator new
	add	esp, 4
	test	eax, eax
	je	SHORT $LN13@Deque_val
	mov	DWORD PTR [eax], esi
	mov	DWORD PTR [esi], eax

; 501  : 		}

	mov	eax, esi
	ret	4

; 500  : 		{	// construct allocator and base from _Al

$LN13@Deque_val:
	xor	eax, eax
	mov	DWORD PTR [esi], eax

; 501  : 		}

	mov	eax, esi
	ret	4
??0?$_Deque_val@V?$basic_string@_WU?$char_traits@_W@std@@V?$allocator@_W@2@@std@@V?$allocator@V?$basic_string@_WU?$char_traits@_W@std@@V?$allocator@_W@2@@std@@@2@@std@@IAE@V?$allocator@V?$basic_string@_WU?$char_traits@_W@std@@V?$allocator@_W@2@@std@@@1@@Z ENDP ; std::_Deque_val<std::basic_string<wchar_t,std::char_traits<wchar_t>,std::allocator<wchar_t> >,std::allocator<std::basic_string<wchar_t,std::char_traits<wchar_t>,std::allocator<wchar_t> > > >::_Deque_val<std::basic_string<wchar_t,std::char_traits<wchar_t>,std::allocator<wchar_t> >,std::allocator<std::basic_string<wchar_t,std::char_traits<wchar_t>,std::allocator<wchar_t> > > >
; Function compile flags: /Ogtpy
_TEXT	ENDS
;	COMDAT ?_Growmap@?$deque@V?$basic_string@_WU?$char_traits@_W@std@@V?$allocator@_W@2@@std@@V?$allocator@V?$basic_string@_WU?$char_traits@_W@std@@V?$allocator@_W@2@@std@@@2@@std@@IAEXI@Z
_TEXT	SEGMENT
__Myboff$ = -8						; size = 4
__Newmap$ = -4						; size = 4
__Count$ = 8						; size = 4
_this$ = 8						; size = 4
?_Growmap@?$deque@V?$basic_string@_WU?$char_traits@_W@std@@V?$allocator@_W@2@@std@@V?$allocator@V?$basic_string@_WU?$char_traits@_W@std@@V?$allocator@_W@2@@std@@@2@@std@@IAEXI@Z PROC ; std::deque<std::basic_string<wchar_t,std::char_traits<wchar_t>,std::allocator<wchar_t> >,std::allocator<std::basic_string<wchar_t,std::char_traits<wchar_t>,std::allocator<wchar_t> > > >::_Growmap, COMDAT

; 1230 : 		{	// grow map by _Count pointers

	sub	esp, 8
	push	ebx
	mov	ebx, DWORD PTR _this$[esp+8]

; 1231 : 		if (max_size() / _DEQUESIZ - _Mapsize < _Count)

	mov	eax, DWORD PTR [ebx+20]
	push	ebp
	mov	ecx, 153391689				; 09249249H
	mov	edx, 1
	sub	ecx, eax
	push	esi
	push	edi

; 1241 : 		_Mapptr _Myptr = _Newmap + _Myboff;
; 1242 : 
; 1243 : 		_Myptr = _STDEXT unchecked_uninitialized_copy(_Map + _Myboff,
; 1244 : 			_Map + _Mapsize, _Myptr, this->_Almap);	// copy initial to end

	mov	DWORD PTR __Count$[esp+20], edx
	cmp	ecx, edx
	jae	SHORT $LN6@Growmap

; 1232 : 			_Xlen();	// result too long

	call	?_Xlen@?$deque@V?$basic_string@_WU?$char_traits@_W@std@@V?$allocator@_W@2@@std@@V?$allocator@V?$basic_string@_WU?$char_traits@_W@std@@V?$allocator@_W@2@@std@@@2@@std@@KAXXZ ; std::deque<std::basic_string<wchar_t,std::char_traits<wchar_t>,std::allocator<wchar_t> >,std::allocator<std::basic_string<wchar_t,std::char_traits<wchar_t>,std::allocator<wchar_t> > > >::_Xlen
$LN159@Growmap:
$LN6@Growmap:

; 1233 : 
; 1234 : 		size_type _Inc = _Mapsize / 2;	// try to grow by 50%

	mov	ecx, eax
	shr	ecx, 1

; 1235 : 		if (_Inc < _DEQUEMAPSIZ)

	cmp	ecx, 8
	jae	SHORT $LN5@Growmap

; 1236 : 			_Inc = _DEQUEMAPSIZ;

	mov	ecx, 8

; 1237 : 		if (_Count < _Inc && _Mapsize <= max_size() / _DEQUESIZ - _Inc)

	jmp	SHORT $LN152@Growmap
$LN5@Growmap:
	cmp	ecx, 1
	jbe	SHORT $LN4@Growmap
$LN152@Growmap:
	mov	esi, 153391689				; 09249249H
	sub	esi, ecx
	cmp	eax, esi
	ja	SHORT $LN4@Growmap

; 1238 : 			_Count = _Inc;

	mov	edx, ecx
	mov	DWORD PTR __Count$[esp+20], ecx
$LN4@Growmap:

; 1239 : 		size_type _Myboff = _Myoff / _DEQUESIZ;

	mov	esi, DWORD PTR [ebx+24]

; 1240 : 		_Mapptr _Newmap = this->_Almap.allocate(_Mapsize + _Count);

	lea	ecx, DWORD PTR [eax+edx]
	mov	DWORD PTR __Myboff$[esp+24], esi
	call	?allocate@?$allocator@PAV?$basic_string@_WU?$char_traits@_W@std@@V?$allocator@_W@2@@std@@@std@@QAEPAPAV?$basic_string@_WU?$char_traits@_W@std@@V?$allocator@_W@2@@2@I@Z ; std::allocator<std::basic_string<wchar_t,std::char_traits<wchar_t>,std::allocator<wchar_t> > *>::allocate

; 1241 : 		_Mapptr _Myptr = _Newmap + _Myboff;
; 1242 : 
; 1243 : 		_Myptr = _STDEXT unchecked_uninitialized_copy(_Map + _Myboff,
; 1244 : 			_Map + _Mapsize, _Myptr, this->_Almap);	// copy initial to end

	mov	ecx, DWORD PTR [ebx+16]
	mov	DWORD PTR __Newmap$[esp+24], eax
	add	esi, esi
	add	esi, esi
	lea	edi, DWORD PTR [esi+eax]
	mov	eax, DWORD PTR [ebx+20]
	add	eax, eax
	add	eax, eax
	lea	edx, DWORD PTR [esi+ecx]
	sub	eax, edx
	add	eax, ecx
	sar	eax, 2
	lea	ecx, DWORD PTR [eax*4]
	lea	ebp, DWORD PTR [ecx+edi]
	test	eax, eax
	jbe	SHORT $LN33@Growmap
	push	ecx
	push	edx
	push	ecx
	push	edi
	call	DWORD PTR __imp__memmove_s
	add	esp, 16					; 00000010H
$LN33@Growmap:

; 1245 : 		if (_Myboff <= _Count)

	mov	edx, DWORD PTR __Myboff$[esp+24]
	mov	eax, DWORD PTR __Count$[esp+20]
	cmp	edx, eax
	ja	SHORT $LN3@Growmap

; 1246 : 			{	// increment greater than offset of initial block
; 1247 : 			_Myptr = _STDEXT unchecked_uninitialized_copy(_Map,
; 1248 : 				_Map + _Myboff, _Myptr, this->_Almap);	// copy rest of old

	mov	eax, DWORD PTR [ebx+16]
	sar	esi, 2
	lea	ecx, DWORD PTR [esi*4]
	lea	edi, DWORD PTR [ecx+ebp]
	test	esi, esi
	jbe	SHORT $LN48@Growmap
	push	ecx
	push	eax
	push	ecx
	push	ebp
	call	DWORD PTR __imp__memmove_s
	mov	edx, DWORD PTR __Myboff$[esp+40]
	add	esp, 16					; 00000010H
$LN48@Growmap:

; 1249 : 			_STDEXT unchecked_uninitialized_fill_n(_Myptr, _Count - _Myboff,
; 1250 : 				(_Tptr)0, this->_Almap);	// clear suffix of new

	mov	ecx, DWORD PTR __Count$[esp+20]
	sub	ecx, edx
	je	SHORT $LN69@Growmap
	mov	edx, DWORD PTR __Myboff$[esp+24]
	xor	eax, eax
	rep stosd
$LN69@Growmap:

; 1251 : 			_STDEXT unchecked_uninitialized_fill_n(_Newmap, _Myboff,
; 1252 : 				(_Tptr)0, this->_Almap);	// clear prefix of new

	mov	ebp, DWORD PTR __Newmap$[esp+24]
	test	edx, edx
	jbe	SHORT $LN141@Growmap
	mov	ecx, edx
	mov	edi, ebp

; 1253 : 			}
; 1254 : 		else

	jmp	SHORT $LN158@Growmap
$LN3@Growmap:

; 1255 : 			{	// increment not greater than offset of initial block
; 1256 : 			_STDEXT unchecked_uninitialized_copy(_Map,
; 1257 : 				_Map + _Count, _Myptr, this->_Almap);	// copy more old

	mov	ecx, DWORD PTR [ebx+16]
	lea	edi, DWORD PTR [eax*4]
	mov	eax, edi
	sar	eax, 2
	test	eax, eax
	jbe	SHORT $LN105@Growmap
	add	eax, eax
	add	eax, eax
	push	eax
	push	ecx
	push	eax
	push	ebp
	call	DWORD PTR __imp__memmove_s
	add	esp, 16					; 00000010H
$LN105@Growmap:

; 1258 : 			_Myptr = _STDEXT unchecked_uninitialized_copy(_Map + _Count,
; 1259 : 				_Map + _Myboff, _Newmap, this->_Almap);	// copy rest of old

	mov	eax, DWORD PTR [ebx+16]
	mov	ebp, DWORD PTR __Newmap$[esp+24]
	lea	ecx, DWORD PTR [edi+eax]
	sub	esi, ecx
	add	esi, eax
	sar	esi, 2
	lea	eax, DWORD PTR [esi*4]
	lea	edi, DWORD PTR [eax+ebp]
	test	esi, esi
	jbe	SHORT $LN120@Growmap
	push	eax
	push	ecx
	push	eax
	push	ebp
	call	DWORD PTR __imp__memmove_s
	add	esp, 16					; 00000010H
$LN120@Growmap:

; 1260 : 			_STDEXT unchecked_uninitialized_fill_n(_Myptr, _Count,
; 1261 : 				(_Tptr)0, this->_Almap);	// clear rest to initial block

	mov	ecx, DWORD PTR __Count$[esp+20]
	test	ecx, ecx
	jbe	SHORT $LN141@Growmap
$LN158@Growmap:
	xor	eax, eax
	rep stosd
$LN141@Growmap:

; 1262 : 			}
; 1263 : 
; 1264 : 		_Destroy_range(_Map + _Myboff, _Map + _Mapsize, this->_Almap);
; 1265 : 		if (_Map)

	mov	eax, DWORD PTR [ebx+16]
	test	eax, eax
	je	SHORT $LN144@Growmap

; 1266 : 			this->_Almap.deallocate(_Map, _Mapsize);	// free storage for old

	push	eax
	call	??3@YAXPAX@Z				; operator delete
	add	esp, 4
$LN144@Growmap:

; 1267 : 
; 1268 : 		_Map = _Newmap;	// point at new
; 1269 : 		_Mapsize += _Count;

	mov	edx, DWORD PTR __Count$[esp+20]
	add	DWORD PTR [ebx+20], edx

; 1270 : 		}

	pop	edi
	pop	esi
	mov	DWORD PTR [ebx+16], ebp
	pop	ebp
	pop	ebx
	add	esp, 8
	ret	4
$LN157@Growmap:
?_Growmap@?$deque@V?$basic_string@_WU?$char_traits@_W@std@@V?$allocator@_W@2@@std@@V?$allocator@V?$basic_string@_WU?$char_traits@_W@std@@V?$allocator@_W@2@@std@@@2@@std@@IAEXI@Z ENDP ; std::deque<std::basic_string<wchar_t,std::char_traits<wchar_t>,std::allocator<wchar_t> >,std::allocator<std::basic_string<wchar_t,std::char_traits<wchar_t>,std::allocator<wchar_t> > > >::_Growmap
; Function compile flags: /Ogtpy
_TEXT	ENDS
;	COMDAT ??0?$_Deque_val@_WV?$allocator@_W@std@@@std@@IAE@V?$allocator@_W@1@@Z
_TEXT	SEGMENT
__Al$ = 8						; size = 1
??0?$_Deque_val@_WV?$allocator@_W@std@@@std@@IAE@V?$allocator@_W@1@@Z PROC ; std::_Deque_val<wchar_t,std::allocator<wchar_t> >::_Deque_val<wchar_t,std::allocator<wchar_t> >, COMDAT
; _this$ = esi

; 500  : 		{	// construct allocator and base from _Al

	push	4
	call	??2@YAPAXI@Z				; operator new
	add	esp, 4
	test	eax, eax
	je	SHORT $LN13@Deque_val@2
	mov	DWORD PTR [eax], esi
	mov	DWORD PTR [esi], eax

; 501  : 		}

	mov	eax, esi
	ret	4

; 500  : 		{	// construct allocator and base from _Al

$LN13@Deque_val@2:
	xor	eax, eax
	mov	DWORD PTR [esi], eax

; 501  : 		}

	mov	eax, esi
	ret	4
??0?$_Deque_val@_WV?$allocator@_W@std@@@std@@IAE@V?$allocator@_W@1@@Z ENDP ; std::_Deque_val<wchar_t,std::allocator<wchar_t> >::_Deque_val<wchar_t,std::allocator<wchar_t> >
; Function compile flags: /Ogtpy
_TEXT	ENDS
;	COMDAT ?_Growmap@?$deque@_WV?$allocator@_W@std@@@std@@IAEXI@Z
_TEXT	SEGMENT
__Newmap$ = -4						; size = 4
__Count$ = 8						; size = 4
_this$ = 8						; size = 4
?_Growmap@?$deque@_WV?$allocator@_W@std@@@std@@IAEXI@Z PROC ; std::deque<wchar_t,std::allocator<wchar_t> >::_Growmap, COMDAT

; 1230 : 		{	// grow map by _Count pointers

	push	ecx
	push	ebx
	mov	ebx, DWORD PTR _this$[esp+4]

; 1231 : 		if (max_size() / _DEQUESIZ - _Mapsize < _Count)

	mov	eax, DWORD PTR [ebx+20]
	mov	ecx, 268435455				; 0fffffffH
	sub	ecx, eax
	mov	DWORD PTR __Count$[esp+4], 1
	cmp	ecx, 1
	jae	SHORT $LN6@Growmap@2

; 1232 : 			_Xlen();	// result too long

	call	?_Xlen@?$deque@_WV?$allocator@_W@std@@@std@@KAXXZ ; std::deque<wchar_t,std::allocator<wchar_t> >::_Xlen
$LN159@Growmap@2:
$LN6@Growmap@2:

; 1233 : 
; 1234 : 		size_type _Inc = _Mapsize / 2;	// try to grow by 50%

	mov	ecx, eax
	shr	ecx, 1

; 1235 : 		if (_Inc < _DEQUEMAPSIZ)

	cmp	ecx, 8
	jae	SHORT $LN5@Growmap@2

; 1236 : 			_Inc = _DEQUEMAPSIZ;

	mov	ecx, 8

; 1237 : 		if (_Count < _Inc && _Mapsize <= max_size() / _DEQUESIZ - _Inc)

	jmp	SHORT $LN152@Growmap@2
$LN5@Growmap@2:
	cmp	ecx, 1
	jbe	SHORT $LN4@Growmap@2
$LN152@Growmap@2:
	mov	edx, 268435455				; 0fffffffH
	sub	edx, ecx
	cmp	eax, edx
	ja	SHORT $LN4@Growmap@2

; 1238 : 			_Count = _Inc;

	mov	DWORD PTR __Count$[esp+4], ecx
$LN4@Growmap@2:

; 1239 : 		size_type _Myboff = _Myoff / _DEQUESIZ;
; 1240 : 		_Mapptr _Newmap = this->_Almap.allocate(_Mapsize + _Count);

	mov	ecx, DWORD PTR __Count$[esp+4]
	push	ebp
	mov	ebp, DWORD PTR [ebx+24]
	push	esi
	push	edi
	add	ecx, eax
	shr	ebp, 3
	call	?allocate@?$allocator@PA_W@std@@QAEPAPA_WI@Z ; std::allocator<wchar_t *>::allocate

; 1241 : 		_Mapptr _Myptr = _Newmap + _Myboff;
; 1242 : 
; 1243 : 		_Myptr = _STDEXT unchecked_uninitialized_copy(_Map + _Myboff,
; 1244 : 			_Map + _Mapsize, _Myptr, this->_Almap);	// copy initial to end

	mov	ecx, DWORD PTR [ebx+16]
	mov	DWORD PTR __Newmap$[esp+20], eax
	lea	esi, DWORD PTR [ebp*4]
	lea	edi, DWORD PTR [esi+eax]
	mov	eax, DWORD PTR [ebx+20]
	add	eax, eax
	add	eax, eax
	lea	edx, DWORD PTR [esi+ecx]
	sub	eax, edx
	add	eax, ecx
	sar	eax, 2
	lea	ecx, DWORD PTR [eax*4]
	add	edi, ecx
	test	eax, eax
	jbe	SHORT $LN153@Growmap@2
	push	ecx
	push	edx
	mov	edx, DWORD PTR __Newmap$[esp+28]
	push	ecx
	lea	eax, DWORD PTR [esi+edx]
	push	eax
	call	DWORD PTR __imp__memmove_s
	add	esp, 16					; 00000010H
$LN153@Growmap@2:

; 1245 : 		if (_Myboff <= _Count)

	mov	eax, DWORD PTR __Count$[esp+16]
	cmp	ebp, eax
	ja	SHORT $LN3@Growmap@2

; 1246 : 			{	// increment greater than offset of initial block
; 1247 : 			_Myptr = _STDEXT unchecked_uninitialized_copy(_Map,
; 1248 : 				_Map + _Myboff, _Myptr, this->_Almap);	// copy rest of old

	mov	eax, DWORD PTR [ebx+16]
	sar	esi, 2
	mov	ecx, esi
	lea	edx, DWORD PTR [ecx*4]
	lea	esi, DWORD PTR [edx+edi]
	test	ecx, ecx
	jbe	SHORT $LN48@Growmap@2
	push	edx
	push	eax
	push	edx
	push	edi
	call	DWORD PTR __imp__memmove_s
	add	esp, 16					; 00000010H
$LN48@Growmap@2:

; 1249 : 			_STDEXT unchecked_uninitialized_fill_n(_Myptr, _Count - _Myboff,
; 1250 : 				(_Tptr)0, this->_Almap);	// clear suffix of new

	mov	ecx, DWORD PTR __Count$[esp+16]
	sub	ecx, ebp
	je	SHORT $LN69@Growmap@2
	xor	eax, eax
	mov	edi, esi
	rep stosd
$LN69@Growmap@2:

; 1251 : 			_STDEXT unchecked_uninitialized_fill_n(_Newmap, _Myboff,
; 1252 : 				(_Tptr)0, this->_Almap);	// clear prefix of new

	test	ebp, ebp
	jbe	SHORT $LN155@Growmap@2
	mov	edi, DWORD PTR __Newmap$[esp+20]
	mov	ecx, ebp

; 1253 : 			}
; 1254 : 		else

	jmp	SHORT $LN158@Growmap@2
$LN3@Growmap@2:

; 1255 : 			{	// increment not greater than offset of initial block
; 1256 : 			_STDEXT unchecked_uninitialized_copy(_Map,
; 1257 : 				_Map + _Count, _Myptr, this->_Almap);	// copy more old

	mov	ecx, DWORD PTR [ebx+16]
	lea	ebp, DWORD PTR [eax*4]
	mov	eax, ebp
	sar	eax, 2
	test	eax, eax
	jbe	SHORT $LN154@Growmap@2
	add	eax, eax
	add	eax, eax
	push	eax
	push	ecx
	push	eax
	push	edi
	call	DWORD PTR __imp__memmove_s
	add	esp, 16					; 00000010H
$LN154@Growmap@2:

; 1258 : 			_Myptr = _STDEXT unchecked_uninitialized_copy(_Map + _Count,
; 1259 : 				_Map + _Myboff, _Newmap, this->_Almap);	// copy rest of old

	mov	eax, DWORD PTR [ebx+16]
	mov	edx, DWORD PTR __Newmap$[esp+20]
	lea	ecx, DWORD PTR [eax+ebp]
	sub	esi, ecx
	add	esi, eax
	sar	esi, 2
	lea	eax, DWORD PTR [esi*4]
	lea	edi, DWORD PTR [eax+edx]
	test	esi, esi
	jbe	SHORT $LN120@Growmap@2
	push	eax
	push	ecx
	push	eax
	push	edx
	call	DWORD PTR __imp__memmove_s
	add	esp, 16					; 00000010H
$LN120@Growmap@2:

; 1260 : 			_STDEXT unchecked_uninitialized_fill_n(_Myptr, _Count,
; 1261 : 				(_Tptr)0, this->_Almap);	// clear rest to initial block

	mov	ecx, DWORD PTR __Count$[esp+16]
	test	ecx, ecx
	jbe	SHORT $LN155@Growmap@2
$LN158@Growmap@2:
	xor	eax, eax
	rep stosd
$LN155@Growmap@2:

; 1262 : 			}
; 1263 : 
; 1264 : 		_Destroy_range(_Map + _Myboff, _Map + _Mapsize, this->_Almap);
; 1265 : 		if (_Map)

	mov	eax, DWORD PTR [ebx+16]
	pop	edi
	pop	esi
	pop	ebp
	test	eax, eax
	je	SHORT $LN144@Growmap@2

; 1266 : 			this->_Almap.deallocate(_Map, _Mapsize);	// free storage for old

	push	eax
	call	??3@YAXPAX@Z				; operator delete
	add	esp, 4
$LN144@Growmap@2:

; 1267 : 
; 1268 : 		_Map = _Newmap;	// point at new

	mov	eax, DWORD PTR __Newmap$[esp+8]

; 1269 : 		_Mapsize += _Count;

	mov	ecx, DWORD PTR __Count$[esp+4]
	add	DWORD PTR [ebx+20], ecx
	mov	DWORD PTR [ebx+16], eax
	pop	ebx

; 1270 : 		}

	pop	ecx
	ret	4
$LN157@Growmap@2:
?_Growmap@?$deque@_WV?$allocator@_W@std@@@std@@IAEXI@Z ENDP ; std::deque<wchar_t,std::allocator<wchar_t> >::_Growmap
; Function compile flags: /Ogtpy
_TEXT	ENDS
;	COMDAT ?_Tidy@?$deque@V?$basic_string@_WU?$char_traits@_W@std@@V?$allocator@_W@2@@std@@V?$allocator@V?$basic_string@_WU?$char_traits@_W@std@@V?$allocator@_W@2@@std@@@2@@std@@IAEXXZ
_TEXT	SEGMENT
?_Tidy@?$deque@V?$basic_string@_WU?$char_traits@_W@std@@V?$allocator@_W@2@@std@@V?$allocator@V?$basic_string@_WU?$char_traits@_W@std@@V?$allocator@_W@2@@std@@@2@@std@@IAEXXZ PROC ; std::deque<std::basic_string<wchar_t,std::char_traits<wchar_t>,std::allocator<wchar_t> >,std::allocator<std::basic_string<wchar_t,std::char_traits<wchar_t>,std::allocator<wchar_t> > > >::_Tidy, COMDAT
; _this$ = esi

; 1273 : 		{	// free all storage

	push	ebx

; 1274 : 		while (!empty())

	xor	ebx, ebx
	push	edi
	cmp	DWORD PTR [esi+28], ebx
	je	SHORT $LN5@Tidy
	or	edi, -1
	npad	4
$LL6@Tidy:

; 1275 : 			pop_back();

	mov	eax, DWORD PTR [esi+28]
	cmp	eax, ebx
	je	SHORT $LN11@Tidy
	mov	ecx, DWORD PTR [esi+24]
	lea	eax, DWORD PTR [eax+ecx-1]
	mov	ecx, DWORD PTR [esi+20]
	cmp	ecx, eax
	ja	SHORT $LN12@Tidy
	sub	eax, ecx
$LN12@Tidy:
	mov	edx, DWORD PTR [esi+16]
	mov	ecx, DWORD PTR [edx+eax*4]
	call	DWORD PTR __imp_??1?$basic_string@_WU?$char_traits@_W@std@@V?$allocator@_W@2@@std@@QAE@XZ
	add	DWORD PTR [esi+28], edi
	jne	SHORT $LN11@Tidy
	mov	DWORD PTR [esi+24], ebx
$LN11@Tidy:

; 1274 : 		while (!empty())

	cmp	DWORD PTR [esi+28], ebx
	jne	SHORT $LL6@Tidy
$LN5@Tidy:

; 1276 : 		for (size_type _Count = _Mapsize; 0 < _Count; )

	mov	edi, DWORD PTR [esi+20]
	cmp	edi, ebx
	jbe	SHORT $LN3@Tidy
$LL4@Tidy:
	mov	eax, DWORD PTR [esi+16]

; 1277 : 			{	// free storage for a block and destroy pointer
; 1278 : 			if (*(_Map + --_Count) != 0)

	dec	edi
	cmp	DWORD PTR [eax+edi*4], ebx
	lea	eax, DWORD PTR [eax+edi*4]
	je	SHORT $LN25@Tidy

; 1279 : 				this->_Alval.deallocate(*(_Map + _Count), _DEQUESIZ);

	mov	ecx, DWORD PTR [eax]
	push	ecx
	call	??3@YAXPAX@Z				; operator delete
	add	esp, 4
$LN25@Tidy:

; 1276 : 		for (size_type _Count = _Mapsize; 0 < _Count; )

	cmp	edi, ebx
	ja	SHORT $LL4@Tidy
$LN3@Tidy:

; 1280 : 			this->_Almap.destroy(_Map + _Count);
; 1281 : 			}
; 1282 : 
; 1283 : 		if (_Map)

	mov	eax, DWORD PTR [esi+16]
	cmp	eax, ebx
	je	SHORT $LN32@Tidy

; 1284 : 			this->_Almap.deallocate(_Map, _Mapsize);	// free storage for map

	push	eax
	call	??3@YAXPAX@Z				; operator delete
	add	esp, 4
$LN32@Tidy:
	pop	edi

; 1285 : 		_Mapsize = 0;
; 1286 : 		_Map = 0;

	mov	DWORD PTR [esi+16], ebx
	mov	DWORD PTR [esi+20], ebx
	pop	ebx

; 1287 : 		}

	ret	0
?_Tidy@?$deque@V?$basic_string@_WU?$char_traits@_W@std@@V?$allocator@_W@2@@std@@V?$allocator@V?$basic_string@_WU?$char_traits@_W@std@@V?$allocator@_W@2@@std@@@2@@std@@IAEXXZ ENDP ; std::deque<std::basic_string<wchar_t,std::char_traits<wchar_t>,std::allocator<wchar_t> >,std::allocator<std::basic_string<wchar_t,std::char_traits<wchar_t>,std::allocator<wchar_t> > > >::_Tidy
_TEXT	ENDS
;	COMDAT xdata$x
; File c:\program files (x86)\microsoft visual studio 9.0\vc\include\new
xdata$x	SEGMENT
__unwindtable$?push_back@?$deque@V?$basic_string@_WU?$char_traits@_W@std@@V?$allocator@_W@2@@std@@V?$allocator@V?$basic_string@_WU?$char_traits@_W@std@@V?$allocator@_W@2@@std@@@2@@std@@QAEXABV?$basic_string@_WU?$char_traits@_W@std@@V?$allocator@_W@2@@2@@Z DD 0ffffffffH
	DD	FLAT:__unwindfunclet$?push_back@?$deque@V?$basic_string@_WU?$char_traits@_W@std@@V?$allocator@_W@2@@std@@V?$allocator@V?$basic_string@_WU?$char_traits@_W@std@@V?$allocator@_W@2@@std@@@2@@std@@QAEXABV?$basic_string@_WU?$char_traits@_W@std@@V?$allocator@_W@2@@2@@Z$0
__ehfuncinfo$?push_back@?$deque@V?$basic_string@_WU?$char_traits@_W@std@@V?$allocator@_W@2@@std@@V?$allocator@V?$basic_string@_WU?$char_traits@_W@std@@V?$allocator@_W@2@@std@@@2@@std@@QAEXABV?$basic_string@_WU?$char_traits@_W@std@@V?$allocator@_W@2@@2@@Z DD 019930522H
	DD	01H
	DD	FLAT:__unwindtable$?push_back@?$deque@V?$basic_string@_WU?$char_traits@_W@std@@V?$allocator@_W@2@@std@@V?$allocator@V?$basic_string@_WU?$char_traits@_W@std@@V?$allocator@_W@2@@std@@@2@@std@@QAEXABV?$basic_string@_WU?$char_traits@_W@std@@V?$allocator@_W@2@@2@@Z
	DD	2 DUP(00H)
	DD	2 DUP(00H)
	DD	00H
	DD	01H
; Function compile flags: /Ogtpy
; File c:\program files (x86)\microsoft visual studio 9.0\vc\include\deque
xdata$x	ENDS
;	COMDAT ?push_back@?$deque@V?$basic_string@_WU?$char_traits@_W@std@@V?$allocator@_W@2@@std@@V?$allocator@V?$basic_string@_WU?$char_traits@_W@std@@V?$allocator@_W@2@@std@@@2@@std@@QAEXABV?$basic_string@_WU?$char_traits@_W@std@@V?$allocator@_W@2@@2@@Z
_TEXT	SEGMENT
__$EHRec$ = -12						; size = 12
__Val$ = 8						; size = 4
?push_back@?$deque@V?$basic_string@_WU?$char_traits@_W@std@@V?$allocator@_W@2@@std@@V?$allocator@V?$basic_string@_WU?$char_traits@_W@std@@V?$allocator@_W@2@@std@@@2@@std@@QAEXABV?$basic_string@_WU?$char_traits@_W@std@@V?$allocator@_W@2@@2@@Z PROC ; std::deque<std::basic_string<wchar_t,std::char_traits<wchar_t>,std::allocator<wchar_t> >,std::allocator<std::basic_string<wchar_t,std::char_traits<wchar_t>,std::allocator<wchar_t> > > >::push_back, COMDAT
; _this$ = esi

; 843  : 		{	// insert element at end

	mov	eax, DWORD PTR fs:0
	push	-1
	push	__ehhandler$?push_back@?$deque@V?$basic_string@_WU?$char_traits@_W@std@@V?$allocator@_W@2@@std@@V?$allocator@V?$basic_string@_WU?$char_traits@_W@std@@V?$allocator@_W@2@@std@@@2@@std@@QAEXABV?$basic_string@_WU?$char_traits@_W@std@@V?$allocator@_W@2@@2@@Z
	push	eax
	mov	DWORD PTR fs:0, esp

; 844  : 
; 845  :  #if _HAS_ITERATOR_DEBUGGING
; 846  : 		this->_Orphan_all();
; 847  :  #endif /* _HAS_ITERATOR_DEBUGGING */
; 848  : 
; 849  : 		if ((_Myoff + _Mysize) % _DEQUESIZ == 0
; 850  : 			&& _Mapsize <= (_Mysize + _DEQUESIZ) / _DEQUESIZ)

	mov	eax, DWORD PTR [esi+28]
	inc	eax
	push	edi
	cmp	DWORD PTR [esi+20], eax
	ja	SHORT $LN3@push_back

; 851  : 			_Growmap(1);

	push	esi
	call	?_Growmap@?$deque@V?$basic_string@_WU?$char_traits@_W@std@@V?$allocator@_W@2@@std@@V?$allocator@V?$basic_string@_WU?$char_traits@_W@std@@V?$allocator@_W@2@@std@@@2@@std@@IAEXI@Z ; std::deque<std::basic_string<wchar_t,std::char_traits<wchar_t>,std::allocator<wchar_t> >,std::allocator<std::basic_string<wchar_t,std::char_traits<wchar_t>,std::allocator<wchar_t> > > >::_Growmap
$LN3@push_back:

; 852  : 		size_type _Newoff = _Myoff + _Mysize;

	mov	edi, DWORD PTR [esi+24]
	add	edi, DWORD PTR [esi+28]

; 853  : 		size_type _Block = _Newoff / _DEQUESIZ;
; 854  : 		if (_Mapsize <= _Block)

	mov	eax, DWORD PTR [esi+20]
	cmp	eax, edi
	ja	SHORT $LN2@push_back

; 855  : 			_Block -= _Mapsize;

	sub	edi, eax
$LN2@push_back:

; 856  : 		if (_Map[_Block] == 0)

	mov	ecx, DWORD PTR [esi+16]
	cmp	DWORD PTR [ecx+edi*4], 0
	jne	SHORT $LN1@push_back

; 857  : 			_Map[_Block] = this->_Alval.allocate(_DEQUESIZ);

	mov	ecx, 1
	call	??$_Allocate@V?$basic_string@_WU?$char_traits@_W@std@@V?$allocator@_W@2@@std@@@std@@YAPAV?$basic_string@_WU?$char_traits@_W@std@@V?$allocator@_W@2@@0@IPAV10@@Z ; std::_Allocate<std::basic_string<wchar_t,std::char_traits<wchar_t>,std::allocator<wchar_t> > >
	mov	edx, DWORD PTR [esi+16]
	mov	DWORD PTR [edx+edi*4], eax
$LN1@push_back:

; 858  : 		this->_Alval.construct(_Map[_Block] + _Newoff % _DEQUESIZ, _Val);

	mov	eax, DWORD PTR [esi+16]
	mov	ecx, DWORD PTR [eax+edi*4]
	mov	DWORD PTR __$EHRec$[esp+24], 0
	test	ecx, ecx
	je	SHORT $LN26@push_back
	mov	edx, DWORD PTR __Val$[esp+12]
	push	edx
	call	DWORD PTR __imp_??0?$basic_string@_WU?$char_traits@_W@std@@V?$allocator@_W@2@@std@@QAE@ABV01@@Z
$LN26@push_back:

; 859  : 		++_Mysize;
; 860  : 		}

	mov	ecx, DWORD PTR __$EHRec$[esp+16]
	inc	DWORD PTR [esi+28]
	mov	DWORD PTR fs:0, ecx
	pop	edi
	add	esp, 12					; 0000000cH
	ret	4
_TEXT	ENDS
;	COMDAT text$x
text$x	SEGMENT
__unwindfunclet$?push_back@?$deque@V?$basic_string@_WU?$char_traits@_W@std@@V?$allocator@_W@2@@std@@V?$allocator@V?$basic_string@_WU?$char_traits@_W@std@@V?$allocator@_W@2@@std@@@2@@std@@QAEXABV?$basic_string@_WU?$char_traits@_W@std@@V?$allocator@_W@2@@2@@Z$0:
	jmp	??3@YAXPAX0@Z				; operator delete
__ehhandler$?push_back@?$deque@V?$basic_string@_WU?$char_traits@_W@std@@V?$allocator@_W@2@@std@@V?$allocator@V?$basic_string@_WU?$char_traits@_W@std@@V?$allocator@_W@2@@std@@@2@@std@@QAEXABV?$basic_string@_WU?$char_traits@_W@std@@V?$allocator@_W@2@@2@@Z:
	mov	eax, OFFSET __ehfuncinfo$?push_back@?$deque@V?$basic_string@_WU?$char_traits@_W@std@@V?$allocator@_W@2@@std@@V?$allocator@V?$basic_string@_WU?$char_traits@_W@std@@V?$allocator@_W@2@@std@@@2@@std@@QAEXABV?$basic_string@_WU?$char_traits@_W@std@@V?$allocator@_W@2@@2@@Z
	jmp	___CxxFrameHandler3
text$x	ENDS
?push_back@?$deque@V?$basic_string@_WU?$char_traits@_W@std@@V?$allocator@_W@2@@std@@V?$allocator@V?$basic_string@_WU?$char_traits@_W@std@@V?$allocator@_W@2@@std@@@2@@std@@QAEXABV?$basic_string@_WU?$char_traits@_W@std@@V?$allocator@_W@2@@2@@Z ENDP ; std::deque<std::basic_string<wchar_t,std::char_traits<wchar_t>,std::allocator<wchar_t> >,std::allocator<std::basic_string<wchar_t,std::char_traits<wchar_t>,std::allocator<wchar_t> > > >::push_back
; Function compile flags: /Ogtpy
;	COMDAT ?back@?$deque@V?$basic_string@_WU?$char_traits@_W@std@@V?$allocator@_W@2@@std@@V?$allocator@V?$basic_string@_WU?$char_traits@_W@std@@V?$allocator@_W@2@@std@@@2@@std@@QAEAAV?$basic_string@_WU?$char_traits@_W@std@@V?$allocator@_W@2@@2@XZ
_TEXT	SEGMENT
__Tmp$131734 = -12					; size = 8
$T131504 = -12						; size = 8
?back@?$deque@V?$basic_string@_WU?$char_traits@_W@std@@V?$allocator@_W@2@@std@@V?$allocator@V?$basic_string@_WU?$char_traits@_W@std@@V?$allocator@_W@2@@std@@@2@@std@@QAEAAV?$basic_string@_WU?$char_traits@_W@std@@V?$allocator@_W@2@@2@XZ PROC ; std::deque<std::basic_string<wchar_t,std::char_traits<wchar_t>,std::allocator<wchar_t> >,std::allocator<std::basic_string<wchar_t,std::char_traits<wchar_t>,std::allocator<wchar_t> > > >::back, COMDAT
; _this$ = eax

; 789  : 		{	// return last element of mutable sequence

	sub	esp, 12					; 0000000cH
	push	ebx
	push	ebp

; 790  : 		return (*(end() - 1));

	mov	ebp, DWORD PTR __imp___invalid_parameter_noinfo
	push	esi
	push	edi
	mov	edi, eax
	mov	eax, DWORD PTR [edi+24]
	mov	esi, DWORD PTR [edi+28]
	add	esi, eax
	cmp	eax, esi
	jbe	SHORT $LN9@back
	call	ebp
$LN9@back:
	mov	edi, DWORD PTR [edi]
	mov	ebx, edi
	mov	DWORD PTR __Tmp$131734[esp+32], esi
	test	edi, edi
	jne	SHORT $LN64@back
	call	ebp
	xor	eax, eax
	xor	ecx, ecx
$LN53@back:
	mov	ecx, DWORD PTR [ecx+28]
	add	ecx, DWORD PTR [eax+24]
	dec	esi
	cmp	esi, ecx
	ja	SHORT $LN32@back
	test	edi, edi
	je	SHORT $LN58@back
	mov	edi, DWORD PTR [edi]
	jmp	SHORT $LN59@back
$LN64@back:
	mov	eax, DWORD PTR [edi]
	mov	ecx, eax
	jmp	SHORT $LN53@back
$LN58@back:
	xor	edi, edi
$LN59@back:
	cmp	esi, DWORD PTR [edi+24]
	jae	SHORT $LN31@back
$LN32@back:
	call	ebp
$LN31@back:
	lea	eax, DWORD PTR $T131504[esp+28]
	mov	DWORD PTR $T131504[esp+28], ebx
	mov	DWORD PTR $T131504[esp+32], esi
	call	??D?$_Deque_const_iterator@V?$basic_string@_WU?$char_traits@_W@std@@V?$allocator@_W@2@@std@@V?$allocator@V?$basic_string@_WU?$char_traits@_W@std@@V?$allocator@_W@2@@std@@@2@$00@std@@QBEABV?$basic_string@_WU?$char_traits@_W@std@@V?$allocator@_W@2@@1@XZ ; std::_Deque_const_iterator<std::basic_string<wchar_t,std::char_traits<wchar_t>,std::allocator<wchar_t> >,std::allocator<std::basic_string<wchar_t,std::char_traits<wchar_t>,std::allocator<wchar_t> > >,1>::operator*

; 791  : 		}

	pop	edi
	pop	esi
	pop	ebp
	pop	ebx
	add	esp, 12					; 0000000cH
	ret	0
?back@?$deque@V?$basic_string@_WU?$char_traits@_W@std@@V?$allocator@_W@2@@std@@V?$allocator@V?$basic_string@_WU?$char_traits@_W@std@@V?$allocator@_W@2@@std@@@2@@std@@QAEAAV?$basic_string@_WU?$char_traits@_W@std@@V?$allocator@_W@2@@2@XZ ENDP ; std::deque<std::basic_string<wchar_t,std::char_traits<wchar_t>,std::allocator<wchar_t> >,std::allocator<std::basic_string<wchar_t,std::char_traits<wchar_t>,std::allocator<wchar_t> > > >::back
; Function compile flags: /Ogtpy
_TEXT	ENDS
;	COMDAT ??0?$deque@V?$basic_string@_WU?$char_traits@_W@std@@V?$allocator@_W@2@@std@@V?$allocator@V?$basic_string@_WU?$char_traits@_W@std@@V?$allocator@_W@2@@std@@@2@@std@@QAE@XZ
_TEXT	SEGMENT
??0?$deque@V?$basic_string@_WU?$char_traits@_W@std@@V?$allocator@_W@2@@std@@V?$allocator@V?$basic_string@_WU?$char_traits@_W@std@@V?$allocator@_W@2@@std@@@2@@std@@QAE@XZ PROC ; std::deque<std::basic_string<wchar_t,std::char_traits<wchar_t>,std::allocator<wchar_t> >,std::allocator<std::basic_string<wchar_t,std::char_traits<wchar_t>,std::allocator<wchar_t> > > >::deque<std::basic_string<wchar_t,std::char_traits<wchar_t>,std::allocator<wchar_t> >,std::allocator<std::basic_string<wchar_t,std::char_traits<wchar_t>,std::allocator<wchar_t> > > >, COMDAT
; _this$ = esi

; 554  : 		{	// construct empty deque

	push	4
	call	??2@YAPAXI@Z				; operator new
	xor	ecx, ecx
	add	esp, 4
	cmp	eax, ecx
	je	SHORT $LN18@deque
	mov	DWORD PTR [eax], esi
